ARM GAS  /tmp/cceYAhwt.s 			page 1


   1              		.cpu cortex-m4
   2              		.arch armv7e-m
   3              		.fpu fpv4-sp-d16
   4              		.eabi_attribute 27, 1
   5              		.eabi_attribute 28, 1
   6              		.eabi_attribute 20, 1
   7              		.eabi_attribute 21, 1
   8              		.eabi_attribute 23, 3
   9              		.eabi_attribute 24, 1
  10              		.eabi_attribute 25, 1
  11              		.eabi_attribute 26, 1
  12              		.eabi_attribute 30, 1
  13              		.eabi_attribute 34, 1
  14              		.eabi_attribute 18, 4
  15              		.file	"el9800appl.c"
  16              		.text
  17              	.Ltext0:
  18              		.cfi_sections	.debug_frame
  19              		.section	.text.APPL_AckErrorInd,"ax",%progbits
  20              		.align	1
  21              		.global	APPL_AckErrorInd
  22              		.syntax unified
  23              		.thumb
  24              		.thumb_func
  26              	APPL_AckErrorInd:
  27              	.LVL0:
  28              	.LFB123:
  29              		.file 1 "Lib/ssc_app/src/el9800appl.c"
   1:Lib/ssc_app/src/el9800appl.c **** // ############################################################
   2:Lib/ssc_app/src/el9800appl.c **** // ÔøΩÔøΩÔøΩÔøΩÔøΩÔøΩ÷ªÔøΩÔøΩ—ßœ∞ πÔøΩ√£ÔøΩŒ¥ÔøΩÔøΩÔøΩÔøΩÔøΩÔøΩÔøΩÔøΩÔøΩ…£ÔøΩÔøΩÔøΩÔøΩÔøΩÔøΩÔøΩÔøΩÔ
   3:Lib/ssc_app/src/el9800appl.c **** // ÔøΩÔøΩ»®ÔøΩÔøΩÔøΩ–£ÔøΩÔøΩÔøΩÔøΩÔøΩÿæÔøΩ
   4:Lib/ssc_app/src/el9800appl.c **** // EtherCATÔøΩÔøΩ’æ—ßœ∞ÔøΩÔøΩ
   5:Lib/ssc_app/src/el9800appl.c **** // AuthorÔøΩÔøΩÕ¢ÔøΩÔøΩÔøΩÔøΩÔøΩÔøΩÔøΩÔøΩÔøΩ
   6:Lib/ssc_app/src/el9800appl.c **** // ÔøΩ‘±ÔøΩÔøΩÔøΩÔøΩÔøΩ: https://shop461235811.taobao.com/
   7:Lib/ssc_app/src/el9800appl.c **** // ÔøΩ“µƒ≤ÔøΩÔøΩÕ£ÔøΩhttps://blog.csdn.net/zhandouhu/article/category/9455918
   8:Lib/ssc_app/src/el9800appl.c **** // ############################################################
   9:Lib/ssc_app/src/el9800appl.c **** /**
  10:Lib/ssc_app/src/el9800appl.c **** \addtogroup EL9800Appl EL9800 application
  11:Lib/ssc_app/src/el9800appl.c **** @{
  12:Lib/ssc_app/src/el9800appl.c **** */
  13:Lib/ssc_app/src/el9800appl.c **** 
  14:Lib/ssc_app/src/el9800appl.c **** /**
  15:Lib/ssc_app/src/el9800appl.c **** \file el9800appl.c
  16:Lib/ssc_app/src/el9800appl.c **** \author EthercatSSC@beckhoff.com
  17:Lib/ssc_app/src/el9800appl.c **** \brief Implementation
  18:Lib/ssc_app/src/el9800appl.c **** 
  19:Lib/ssc_app/src/el9800appl.c **** \version 5.11
  20:Lib/ssc_app/src/el9800appl.c **** 
  21:Lib/ssc_app/src/el9800appl.c **** <br>Changes to version V5.10:<br>
  22:Lib/ssc_app/src/el9800appl.c **** V5.11 ECAT11: create application interface function pointer, add eeprom emulation interface functio
  23:Lib/ssc_app/src/el9800appl.c **** V5.11 EL9800 1: reset outputs on fallback from OP state<br>
  24:Lib/ssc_app/src/el9800appl.c **** <br>Changes to version V5.01:<br>
  25:Lib/ssc_app/src/el9800appl.c **** V5.10 ECAT6: Add "USE_DEFAULT_MAIN" to enable or disable the main function<br>
  26:Lib/ssc_app/src/el9800appl.c **** <br>Changes to version V5.0:<br>
  27:Lib/ssc_app/src/el9800appl.c **** V5.01 EL9800 2: Add TxPdo Parameter object 0x1802<br>
  28:Lib/ssc_app/src/el9800appl.c **** <br>Changes to version V4.30:<br>
  29:Lib/ssc_app/src/el9800appl.c **** V4.50 ECAT2: Create generic application interface functions. Documentation in Application Note ET93
ARM GAS  /tmp/cceYAhwt.s 			page 2


  30:Lib/ssc_app/src/el9800appl.c **** V4.50 COE2: Handle invalid PDO assign values.<br>
  31:Lib/ssc_app/src/el9800appl.c **** V4.30 : create file
  32:Lib/ssc_app/src/el9800appl.c **** */
  33:Lib/ssc_app/src/el9800appl.c **** 
  34:Lib/ssc_app/src/el9800appl.c **** /*-----------------------------------------------------------------------------------------
  35:Lib/ssc_app/src/el9800appl.c **** ------
  36:Lib/ssc_app/src/el9800appl.c **** ------    Includes
  37:Lib/ssc_app/src/el9800appl.c **** ------
  38:Lib/ssc_app/src/el9800appl.c **** -----------------------------------------------------------------------------------------*/
  39:Lib/ssc_app/src/el9800appl.c **** #include "ecat_def.h"
  40:Lib/ssc_app/src/el9800appl.c **** 
  41:Lib/ssc_app/src/el9800appl.c **** #if EL9800_APPLICATION
  42:Lib/ssc_app/src/el9800appl.c **** 
  43:Lib/ssc_app/src/el9800appl.c **** /* ECATCHANGE_START(V5.11) ECAT11*/
  44:Lib/ssc_app/src/el9800appl.c **** #include "applInterface.h"
  45:Lib/ssc_app/src/el9800appl.c **** /* ECATCHANGE_END(V5.11) ECAT11*/
  46:Lib/ssc_app/src/el9800appl.c **** 
  47:Lib/ssc_app/src/el9800appl.c **** // #include "el9800hw.h"
  48:Lib/ssc_app/src/el9800appl.c **** 
  49:Lib/ssc_app/src/el9800appl.c **** #define _EVALBOARD_
  50:Lib/ssc_app/src/el9800appl.c **** #include "el9800appl.h"
  51:Lib/ssc_app/src/el9800appl.c **** #undef _EVALBOARD_
  52:Lib/ssc_app/src/el9800appl.c **** 
  53:Lib/ssc_app/src/el9800appl.c **** #if MCI_HW
  54:Lib/ssc_app/src/el9800appl.c **** #include "mcihw.h"
  55:Lib/ssc_app/src/el9800appl.c **** #endif
  56:Lib/ssc_app/src/el9800appl.c **** #if EL9800_HW
  57:Lib/ssc_app/src/el9800appl.c **** #include "el9800hw.h"
  58:Lib/ssc_app/src/el9800appl.c **** #endif
  59:Lib/ssc_app/src/el9800appl.c **** /*--------------------------------------------------------------------------------------
  60:Lib/ssc_app/src/el9800appl.c **** ------
  61:Lib/ssc_app/src/el9800appl.c **** ------    local types and defines
  62:Lib/ssc_app/src/el9800appl.c **** ------
  63:Lib/ssc_app/src/el9800appl.c **** --------------------------------------------------------------------------------------*/
  64:Lib/ssc_app/src/el9800appl.c **** 
  65:Lib/ssc_app/src/el9800appl.c **** /*-----------------------------------------------------------------------------------------
  66:Lib/ssc_app/src/el9800appl.c **** ------
  67:Lib/ssc_app/src/el9800appl.c **** ------    local variables and constants
  68:Lib/ssc_app/src/el9800appl.c **** ------
  69:Lib/ssc_app/src/el9800appl.c **** -----------------------------------------------------------------------------------------*/
  70:Lib/ssc_app/src/el9800appl.c **** 
  71:Lib/ssc_app/src/el9800appl.c **** /*-----------------------------------------------------------------------------------------
  72:Lib/ssc_app/src/el9800appl.c **** ------
  73:Lib/ssc_app/src/el9800appl.c **** ------    application specific functions
  74:Lib/ssc_app/src/el9800appl.c **** ------
  75:Lib/ssc_app/src/el9800appl.c **** -----------------------------------------------------------------------------------------*/
  76:Lib/ssc_app/src/el9800appl.c **** 
  77:Lib/ssc_app/src/el9800appl.c **** /*-----------------------------------------------------------------------------------------
  78:Lib/ssc_app/src/el9800appl.c **** ------
  79:Lib/ssc_app/src/el9800appl.c **** ------    generic functions
  80:Lib/ssc_app/src/el9800appl.c **** ------
  81:Lib/ssc_app/src/el9800appl.c **** -----------------------------------------------------------------------------------------*/
  82:Lib/ssc_app/src/el9800appl.c **** 
  83:Lib/ssc_app/src/el9800appl.c **** /////////////////////////////////////////////////////////////////////////////////////////
  84:Lib/ssc_app/src/el9800appl.c **** /**
  85:Lib/ssc_app/src/el9800appl.c ****  \brief    The function is called when an error state was acknowledged by the master
  86:Lib/ssc_app/src/el9800appl.c **** 
ARM GAS  /tmp/cceYAhwt.s 			page 3


  87:Lib/ssc_app/src/el9800appl.c **** */
  88:Lib/ssc_app/src/el9800appl.c **** ///////////////////////////////////////////////////////////////////////////////////////
  89:Lib/ssc_app/src/el9800appl.c **** 
  90:Lib/ssc_app/src/el9800appl.c **** void APPL_AckErrorInd(UINT16 stateTrans)
  91:Lib/ssc_app/src/el9800appl.c **** {
  30              		.loc 1 91 1 view -0
  31              		.cfi_startproc
  32              		@ args = 0, pretend = 0, frame = 0
  33              		@ frame_needed = 0, uses_anonymous_args = 0
  34              		@ link register save eliminated.
  92:Lib/ssc_app/src/el9800appl.c **** }
  35              		.loc 1 92 1 view .LVU1
  36 0000 7047     		bx	lr
  37              		.cfi_endproc
  38              	.LFE123:
  40              		.section	.text.APPL_StartMailboxHandler,"ax",%progbits
  41              		.align	1
  42              		.global	APPL_StartMailboxHandler
  43              		.syntax unified
  44              		.thumb
  45              		.thumb_func
  47              	APPL_StartMailboxHandler:
  48              	.LFB124:
  93:Lib/ssc_app/src/el9800appl.c **** 
  94:Lib/ssc_app/src/el9800appl.c **** /////////////////////////////////////////////////////////////////////////////////////////
  95:Lib/ssc_app/src/el9800appl.c **** /**
  96:Lib/ssc_app/src/el9800appl.c ****  \return    AL Status Code (see ecatslv.h ALSTATUSCODE_....)
  97:Lib/ssc_app/src/el9800appl.c **** 
  98:Lib/ssc_app/src/el9800appl.c ****  \brief    The function is called in the state transition from INIT to PREOP when
  99:Lib/ssc_app/src/el9800appl.c ****            all general settings were checked to start the mailbox handler. This function
 100:Lib/ssc_app/src/el9800appl.c ****            informs the application about the state transition, the application can refuse
 101:Lib/ssc_app/src/el9800appl.c ****            the state transition when returning an AL Status error code.
 102:Lib/ssc_app/src/el9800appl.c ****            The return code NOERROR_INWORK can be used, if the application cannot confirm
 103:Lib/ssc_app/src/el9800appl.c ****            the state transition immediately, in that case the application need to be complete
 104:Lib/ssc_app/src/el9800appl.c ****            the transition by calling ECAT_StateChange.
 105:Lib/ssc_app/src/el9800appl.c **** 
 106:Lib/ssc_app/src/el9800appl.c **** */
 107:Lib/ssc_app/src/el9800appl.c **** ///////////////////////////////////////////////////////////////////////////////////////
 108:Lib/ssc_app/src/el9800appl.c **** 
 109:Lib/ssc_app/src/el9800appl.c **** UINT16 APPL_StartMailboxHandler(void)
 110:Lib/ssc_app/src/el9800appl.c **** {
  49              		.loc 1 110 1 view -0
  50              		.cfi_startproc
  51              		@ args = 0, pretend = 0, frame = 0
  52              		@ frame_needed = 0, uses_anonymous_args = 0
  53              		@ link register save eliminated.
 111:Lib/ssc_app/src/el9800appl.c ****     return ALSTATUSCODE_NOERROR;
  54              		.loc 1 111 5 view .LVU3
 112:Lib/ssc_app/src/el9800appl.c **** }
  55              		.loc 1 112 1 is_stmt 0 view .LVU4
  56 0000 0020     		movs	r0, #0
  57 0002 7047     		bx	lr
  58              		.cfi_endproc
  59              	.LFE124:
  61              		.section	.text.APPL_StopMailboxHandler,"ax",%progbits
  62              		.align	1
  63              		.global	APPL_StopMailboxHandler
ARM GAS  /tmp/cceYAhwt.s 			page 4


  64              		.syntax unified
  65              		.thumb
  66              		.thumb_func
  68              	APPL_StopMailboxHandler:
  69              	.LFB125:
 113:Lib/ssc_app/src/el9800appl.c **** 
 114:Lib/ssc_app/src/el9800appl.c **** /////////////////////////////////////////////////////////////////////////////////////////
 115:Lib/ssc_app/src/el9800appl.c **** /**
 116:Lib/ssc_app/src/el9800appl.c ****  \return     0, NOERROR_INWORK
 117:Lib/ssc_app/src/el9800appl.c **** 
 118:Lib/ssc_app/src/el9800appl.c ****  \brief    The function is called in the state transition from PREEOP to INIT
 119:Lib/ssc_app/src/el9800appl.c ****              to stop the mailbox handler. This functions informs the application
 120:Lib/ssc_app/src/el9800appl.c ****              about the state transition, the application cannot refuse
 121:Lib/ssc_app/src/el9800appl.c ****              the state transition.
 122:Lib/ssc_app/src/el9800appl.c **** 
 123:Lib/ssc_app/src/el9800appl.c **** */
 124:Lib/ssc_app/src/el9800appl.c **** ///////////////////////////////////////////////////////////////////////////////////////
 125:Lib/ssc_app/src/el9800appl.c **** 
 126:Lib/ssc_app/src/el9800appl.c **** UINT16 APPL_StopMailboxHandler(void)
 127:Lib/ssc_app/src/el9800appl.c **** {
  70              		.loc 1 127 1 is_stmt 1 view -0
  71              		.cfi_startproc
  72              		@ args = 0, pretend = 0, frame = 0
  73              		@ frame_needed = 0, uses_anonymous_args = 0
  74              		@ link register save eliminated.
 128:Lib/ssc_app/src/el9800appl.c ****     return ALSTATUSCODE_NOERROR;
  75              		.loc 1 128 5 view .LVU6
 129:Lib/ssc_app/src/el9800appl.c **** }
  76              		.loc 1 129 1 is_stmt 0 view .LVU7
  77 0000 0020     		movs	r0, #0
  78 0002 7047     		bx	lr
  79              		.cfi_endproc
  80              	.LFE125:
  82              		.section	.text.APPL_StartInputHandler,"ax",%progbits
  83              		.align	1
  84              		.global	APPL_StartInputHandler
  85              		.syntax unified
  86              		.thumb
  87              		.thumb_func
  89              	APPL_StartInputHandler:
  90              	.LVL1:
  91              	.LFB126:
 130:Lib/ssc_app/src/el9800appl.c **** 
 131:Lib/ssc_app/src/el9800appl.c **** /////////////////////////////////////////////////////////////////////////////////////////
 132:Lib/ssc_app/src/el9800appl.c **** /**
 133:Lib/ssc_app/src/el9800appl.c ****  \param    pIntMask    pointer to the AL Event Mask which will be written to the AL event Mask
 134:Lib/ssc_app/src/el9800appl.c ****                         register (0x204) when this function is succeeded. The event mask can be ada
 135:Lib/ssc_app/src/el9800appl.c ****                         in this function
 136:Lib/ssc_app/src/el9800appl.c ****  \return    AL Status Code (see ecatslv.h ALSTATUSCODE_....)
 137:Lib/ssc_app/src/el9800appl.c **** 
 138:Lib/ssc_app/src/el9800appl.c ****  \brief    The function is called in the state transition from PREOP to SAFEOP when
 139:Lib/ssc_app/src/el9800appl.c ****              all general settings were checked to start the input handler. This function
 140:Lib/ssc_app/src/el9800appl.c ****              informs the application about the state transition, the application can refuse
 141:Lib/ssc_app/src/el9800appl.c ****              the state transition when returning an AL Status error code.
 142:Lib/ssc_app/src/el9800appl.c ****             The return code NOERROR_INWORK can be used, if the application cannot confirm
 143:Lib/ssc_app/src/el9800appl.c ****             the state transition immediately, in that case the application need to be complete
 144:Lib/ssc_app/src/el9800appl.c ****             the transition by calling ECAT_StateChange.
ARM GAS  /tmp/cceYAhwt.s 			page 5


 145:Lib/ssc_app/src/el9800appl.c **** */
 146:Lib/ssc_app/src/el9800appl.c **** ///////////////////////////////////////////////////////////////////////////////////////
 147:Lib/ssc_app/src/el9800appl.c **** 
 148:Lib/ssc_app/src/el9800appl.c **** UINT16 APPL_StartInputHandler(UINT16 *pIntMask)
 149:Lib/ssc_app/src/el9800appl.c **** {
  92              		.loc 1 149 1 is_stmt 1 view -0
  93              		.cfi_startproc
  94              		@ args = 0, pretend = 0, frame = 0
  95              		@ frame_needed = 0, uses_anonymous_args = 0
  96              		@ link register save eliminated.
 150:Lib/ssc_app/src/el9800appl.c ****     return ALSTATUSCODE_NOERROR;
  97              		.loc 1 150 5 view .LVU9
 151:Lib/ssc_app/src/el9800appl.c **** }
  98              		.loc 1 151 1 is_stmt 0 view .LVU10
  99 0000 0020     		movs	r0, #0
 100              	.LVL2:
 101              		.loc 1 151 1 view .LVU11
 102 0002 7047     		bx	lr
 103              		.cfi_endproc
 104              	.LFE126:
 106              		.section	.text.APPL_StopInputHandler,"ax",%progbits
 107              		.align	1
 108              		.global	APPL_StopInputHandler
 109              		.syntax unified
 110              		.thumb
 111              		.thumb_func
 113              	APPL_StopInputHandler:
 114              	.LFB127:
 152:Lib/ssc_app/src/el9800appl.c **** 
 153:Lib/ssc_app/src/el9800appl.c **** /////////////////////////////////////////////////////////////////////////////////////////
 154:Lib/ssc_app/src/el9800appl.c **** /**
 155:Lib/ssc_app/src/el9800appl.c ****  \return     0, NOERROR_INWORK
 156:Lib/ssc_app/src/el9800appl.c **** 
 157:Lib/ssc_app/src/el9800appl.c ****  \brief    The function is called in the state transition from SAFEOP to PREEOP
 158:Lib/ssc_app/src/el9800appl.c ****              to stop the input handler. This functions informs the application
 159:Lib/ssc_app/src/el9800appl.c ****              about the state transition, the application cannot refuse
 160:Lib/ssc_app/src/el9800appl.c ****              the state transition.
 161:Lib/ssc_app/src/el9800appl.c **** 
 162:Lib/ssc_app/src/el9800appl.c **** */
 163:Lib/ssc_app/src/el9800appl.c **** ///////////////////////////////////////////////////////////////////////////////////////
 164:Lib/ssc_app/src/el9800appl.c **** 
 165:Lib/ssc_app/src/el9800appl.c **** UINT16 APPL_StopInputHandler(void)
 166:Lib/ssc_app/src/el9800appl.c **** {
 115              		.loc 1 166 1 is_stmt 1 view -0
 116              		.cfi_startproc
 117              		@ args = 0, pretend = 0, frame = 0
 118              		@ frame_needed = 0, uses_anonymous_args = 0
 119              		@ link register save eliminated.
 167:Lib/ssc_app/src/el9800appl.c ****     return ALSTATUSCODE_NOERROR;
 120              		.loc 1 167 5 view .LVU13
 168:Lib/ssc_app/src/el9800appl.c **** }
 121              		.loc 1 168 1 is_stmt 0 view .LVU14
 122 0000 0020     		movs	r0, #0
 123 0002 7047     		bx	lr
 124              		.cfi_endproc
 125              	.LFE127:
 127              		.section	.text.APPL_StartOutputHandler,"ax",%progbits
ARM GAS  /tmp/cceYAhwt.s 			page 6


 128              		.align	1
 129              		.global	APPL_StartOutputHandler
 130              		.syntax unified
 131              		.thumb
 132              		.thumb_func
 134              	APPL_StartOutputHandler:
 135              	.LFB128:
 169:Lib/ssc_app/src/el9800appl.c **** 
 170:Lib/ssc_app/src/el9800appl.c **** /////////////////////////////////////////////////////////////////////////////////////////
 171:Lib/ssc_app/src/el9800appl.c **** /**
 172:Lib/ssc_app/src/el9800appl.c ****  \return    AL Status Code (see ecatslv.h ALSTATUSCODE_....)
 173:Lib/ssc_app/src/el9800appl.c **** 
 174:Lib/ssc_app/src/el9800appl.c ****  \brief    The function is called in the state transition from SAFEOP to OP when
 175:Lib/ssc_app/src/el9800appl.c ****              all general settings were checked to start the output handler. This function
 176:Lib/ssc_app/src/el9800appl.c ****              informs the application about the state transition, the application can refuse
 177:Lib/ssc_app/src/el9800appl.c ****              the state transition when returning an AL Status error code.
 178:Lib/ssc_app/src/el9800appl.c ****            The return code NOERROR_INWORK can be used, if the application cannot confirm
 179:Lib/ssc_app/src/el9800appl.c ****            the state transition immediately, in that case the application need to be complete
 180:Lib/ssc_app/src/el9800appl.c ****            the transition by calling ECAT_StateChange.
 181:Lib/ssc_app/src/el9800appl.c **** */
 182:Lib/ssc_app/src/el9800appl.c **** ///////////////////////////////////////////////////////////////////////////////////////
 183:Lib/ssc_app/src/el9800appl.c **** 
 184:Lib/ssc_app/src/el9800appl.c **** UINT16 APPL_StartOutputHandler(void)
 185:Lib/ssc_app/src/el9800appl.c **** {
 136              		.loc 1 185 1 is_stmt 1 view -0
 137              		.cfi_startproc
 138              		@ args = 0, pretend = 0, frame = 0
 139              		@ frame_needed = 0, uses_anonymous_args = 0
 140              		@ link register save eliminated.
 186:Lib/ssc_app/src/el9800appl.c ****     return ALSTATUSCODE_NOERROR;
 141              		.loc 1 186 5 view .LVU16
 187:Lib/ssc_app/src/el9800appl.c **** }
 142              		.loc 1 187 1 is_stmt 0 view .LVU17
 143 0000 0020     		movs	r0, #0
 144 0002 7047     		bx	lr
 145              		.cfi_endproc
 146              	.LFE128:
 148              		.section	.text.APPL_StopOutputHandler,"ax",%progbits
 149              		.align	1
 150              		.global	APPL_StopOutputHandler
 151              		.syntax unified
 152              		.thumb
 153              		.thumb_func
 155              	APPL_StopOutputHandler:
 156              	.LFB129:
 188:Lib/ssc_app/src/el9800appl.c **** 
 189:Lib/ssc_app/src/el9800appl.c **** /////////////////////////////////////////////////////////////////////////////////////////
 190:Lib/ssc_app/src/el9800appl.c **** /**
 191:Lib/ssc_app/src/el9800appl.c ****  \return     0, NOERROR_INWORK
 192:Lib/ssc_app/src/el9800appl.c **** 
 193:Lib/ssc_app/src/el9800appl.c ****  \brief    The function is called in the state transition from OP to SAFEOP
 194:Lib/ssc_app/src/el9800appl.c ****              to stop the output handler. This functions informs the application
 195:Lib/ssc_app/src/el9800appl.c ****              about the state transition, the application cannot refuse
 196:Lib/ssc_app/src/el9800appl.c ****              the state transition.
 197:Lib/ssc_app/src/el9800appl.c **** 
 198:Lib/ssc_app/src/el9800appl.c **** */
 199:Lib/ssc_app/src/el9800appl.c **** ///////////////////////////////////////////////////////////////////////////////////////
ARM GAS  /tmp/cceYAhwt.s 			page 7


 200:Lib/ssc_app/src/el9800appl.c **** 
 201:Lib/ssc_app/src/el9800appl.c **** #include "bsp_led.h"
 202:Lib/ssc_app/src/el9800appl.c **** 
 203:Lib/ssc_app/src/el9800appl.c **** extern CanTxMsg Can1_TxMessage; // ÂèëÈÄÅÁºìÂÜ≤Âå∫
 204:Lib/ssc_app/src/el9800appl.c **** extern CanRxMsg Can1_RxMessage; // Êé•Êî∂ÁºìÂÜ≤Âå∫
 205:Lib/ssc_app/src/el9800appl.c **** 
 206:Lib/ssc_app/src/el9800appl.c **** extern CanTxMsg Can2_TxMessage; // ÂèëÈÄÅÁºìÂÜ≤Âå∫
 207:Lib/ssc_app/src/el9800appl.c **** extern CanRxMsg Can2_RxMessage; // Êé•Êî∂ÁºìÂÜ≤Âå∫
 208:Lib/ssc_app/src/el9800appl.c **** 
 209:Lib/ssc_app/src/el9800appl.c **** UINT16 APPL_StopOutputHandler(void)
 210:Lib/ssc_app/src/el9800appl.c **** {
 157              		.loc 1 210 1 is_stmt 1 view -0
 158              		.cfi_startproc
 159              		@ args = 0, pretend = 0, frame = 0
 160              		@ frame_needed = 0, uses_anonymous_args = 0
 161 0000 10B5     		push	{r4, lr}
 162              		.cfi_def_cfa_offset 8
 163              		.cfi_offset 4, -8
 164              		.cfi_offset 14, -4
 211:Lib/ssc_app/src/el9800appl.c ****     /*ECATCHANGE_START(V5.11) EL9800 1*/
 212:Lib/ssc_app/src/el9800appl.c ****     sDOOutputs.bLED1 = 0;
 165              		.loc 1 212 5 view .LVU19
 166              		.loc 1 212 22 is_stmt 0 view .LVU20
 167 0002 2A4C     		ldr	r4, .L13
 168 0004 A378     		ldrb	r3, [r4, #2]	@ zero_extendqisi2
 169 0006 6FF30003 		bfc	r3, #0, #1
 170 000a A370     		strb	r3, [r4, #2]
 213:Lib/ssc_app/src/el9800appl.c ****     sDOOutputs.bLED2 = 0;
 171              		.loc 1 213 5 is_stmt 1 view .LVU21
 172              		.loc 1 213 22 is_stmt 0 view .LVU22
 173 000c DBB2     		uxtb	r3, r3
 174 000e 6FF34103 		bfc	r3, #1, #1
 175 0012 A370     		strb	r3, [r4, #2]
 214:Lib/ssc_app/src/el9800appl.c ****     sDOOutputs.bLED3 = 0;
 176              		.loc 1 214 5 is_stmt 1 view .LVU23
 177              		.loc 1 214 22 is_stmt 0 view .LVU24
 178 0014 DBB2     		uxtb	r3, r3
 179 0016 6FF38203 		bfc	r3, #2, #1
 180 001a A370     		strb	r3, [r4, #2]
 215:Lib/ssc_app/src/el9800appl.c ****     sDOOutputs.bLED4 = 0;
 181              		.loc 1 215 5 is_stmt 1 view .LVU25
 182              		.loc 1 215 22 is_stmt 0 view .LVU26
 183 001c DBB2     		uxtb	r3, r3
 184 001e 6FF3C303 		bfc	r3, #3, #1
 185 0022 A370     		strb	r3, [r4, #2]
 216:Lib/ssc_app/src/el9800appl.c **** #if _STM32_IO8
 217:Lib/ssc_app/src/el9800appl.c ****     sDOOutputs.bLED5 = 0;
 186              		.loc 1 217 5 is_stmt 1 view .LVU27
 187              		.loc 1 217 22 is_stmt 0 view .LVU28
 188 0024 DBB2     		uxtb	r3, r3
 189 0026 6FF30413 		bfc	r3, #4, #1
 190 002a A370     		strb	r3, [r4, #2]
 218:Lib/ssc_app/src/el9800appl.c ****     sDOOutputs.bLED7 = 0;
 191              		.loc 1 218 5 is_stmt 1 view .LVU29
 192              		.loc 1 218 22 is_stmt 0 view .LVU30
 193 002c DBB2     		uxtb	r3, r3
 194 002e 6FF38613 		bfc	r3, #6, #1
ARM GAS  /tmp/cceYAhwt.s 			page 8


 195 0032 A370     		strb	r3, [r4, #2]
 219:Lib/ssc_app/src/el9800appl.c ****     sDOOutputs.bLED6 = 0;
 196              		.loc 1 219 5 is_stmt 1 view .LVU31
 197              		.loc 1 219 22 is_stmt 0 view .LVU32
 198 0034 DBB2     		uxtb	r3, r3
 199 0036 6FF34513 		bfc	r3, #5, #1
 200 003a A370     		strb	r3, [r4, #2]
 220:Lib/ssc_app/src/el9800appl.c ****     sDOOutputs.bLED8 = 0;
 201              		.loc 1 220 5 is_stmt 1 view .LVU33
 202              		.loc 1 220 22 is_stmt 0 view .LVU34
 203 003c DBB2     		uxtb	r3, r3
 204 003e 6FF3C713 		bfc	r3, #7, #1
 205 0042 A370     		strb	r3, [r4, #2]
 221:Lib/ssc_app/src/el9800appl.c **** #endif
 222:Lib/ssc_app/src/el9800appl.c **** 
 223:Lib/ssc_app/src/el9800appl.c ****     if (sDOOutputs.bLED1 != 0)
 206              		.loc 1 223 5 is_stmt 1 view .LVU35
 224:Lib/ssc_app/src/el9800appl.c ****     {
 225:Lib/ssc_app/src/el9800appl.c ****         GPIO_SetBits(GPIOB, GPIO_Pin_15);
 226:Lib/ssc_app/src/el9800appl.c ****     }
 227:Lib/ssc_app/src/el9800appl.c ****     else
 228:Lib/ssc_app/src/el9800appl.c ****     {
 229:Lib/ssc_app/src/el9800appl.c ****         GPIO_ResetBits(GPIOB, GPIO_Pin_15);
 207              		.loc 1 229 9 view .LVU36
 208 0044 4FF40041 		mov	r1, #32768
 209 0048 1948     		ldr	r0, .L13+4
 210 004a FFF7FEFF 		bl	GPIO_ResetBits
 211              	.LVL3:
 230:Lib/ssc_app/src/el9800appl.c ****     }
 231:Lib/ssc_app/src/el9800appl.c **** 
 232:Lib/ssc_app/src/el9800appl.c ****     if (sDOOutputs.bLED2 != 0)
 212              		.loc 1 232 5 view .LVU37
 213              		.loc 1 232 26 is_stmt 0 view .LVU38
 214 004e A378     		ldrb	r3, [r4, #2]	@ zero_extendqisi2
 215              		.loc 1 232 8 view .LVU39
 216 0050 13F0020F 		tst	r3, #2
 217 0054 1ED0     		beq	.L8
 233:Lib/ssc_app/src/el9800appl.c ****     {
 234:Lib/ssc_app/src/el9800appl.c ****         GPIO_SetBits(GPIOB, GPIO_Pin_14);
 218              		.loc 1 234 9 is_stmt 1 view .LVU40
 219 0056 4FF48041 		mov	r1, #16384
 220 005a 1548     		ldr	r0, .L13+4
 221 005c FFF7FEFF 		bl	GPIO_SetBits
 222              	.LVL4:
 223              	.L9:
 235:Lib/ssc_app/src/el9800appl.c ****     }
 236:Lib/ssc_app/src/el9800appl.c ****     else
 237:Lib/ssc_app/src/el9800appl.c ****     {
 238:Lib/ssc_app/src/el9800appl.c ****         GPIO_ResetBits(GPIOB, GPIO_Pin_14);
 239:Lib/ssc_app/src/el9800appl.c ****     }
 240:Lib/ssc_app/src/el9800appl.c **** 
 241:Lib/ssc_app/src/el9800appl.c ****     if (sDOOutputs.bLED3 != 0)
 224              		.loc 1 241 5 view .LVU41
 225              		.loc 1 241 26 is_stmt 0 view .LVU42
 226 0060 124B     		ldr	r3, .L13
 227 0062 9B78     		ldrb	r3, [r3, #2]	@ zero_extendqisi2
 228              		.loc 1 241 8 view .LVU43
ARM GAS  /tmp/cceYAhwt.s 			page 9


 229 0064 13F0040F 		tst	r3, #4
 230 0068 1AD0     		beq	.L10
 242:Lib/ssc_app/src/el9800appl.c ****     {
 243:Lib/ssc_app/src/el9800appl.c ****         GPIO_SetBits(GPIOB, GPIO_Pin_13);
 231              		.loc 1 243 9 is_stmt 1 view .LVU44
 232 006a 4FF40051 		mov	r1, #8192
 233 006e 1048     		ldr	r0, .L13+4
 234 0070 FFF7FEFF 		bl	GPIO_SetBits
 235              	.LVL5:
 236              	.L11:
 244:Lib/ssc_app/src/el9800appl.c ****     }
 245:Lib/ssc_app/src/el9800appl.c ****     else
 246:Lib/ssc_app/src/el9800appl.c ****     {
 247:Lib/ssc_app/src/el9800appl.c ****         GPIO_ResetBits(GPIOB, GPIO_Pin_13);
 248:Lib/ssc_app/src/el9800appl.c ****     }
 249:Lib/ssc_app/src/el9800appl.c **** 
 250:Lib/ssc_app/src/el9800appl.c ****     Can1_TxMessage.StdId = 0;
 237              		.loc 1 250 5 view .LVU45
 238              		.loc 1 250 26 is_stmt 0 view .LVU46
 239 0074 0F4B     		ldr	r3, .L13+8
 240 0076 0020     		movs	r0, #0
 241 0078 1860     		str	r0, [r3]
 251:Lib/ssc_app/src/el9800appl.c ****     Can1_TxMessage.ExtId = 0;
 242              		.loc 1 251 5 is_stmt 1 view .LVU47
 243              		.loc 1 251 26 is_stmt 0 view .LVU48
 244 007a 5860     		str	r0, [r3, #4]
 252:Lib/ssc_app/src/el9800appl.c ****     Can1_TxMessage.IDE = 0;
 245              		.loc 1 252 5 is_stmt 1 view .LVU49
 246              		.loc 1 252 24 is_stmt 0 view .LVU50
 247 007c 1872     		strb	r0, [r3, #8]
 253:Lib/ssc_app/src/el9800appl.c ****     Can1_TxMessage.RTR = 0;
 248              		.loc 1 253 5 is_stmt 1 view .LVU51
 249              		.loc 1 253 24 is_stmt 0 view .LVU52
 250 007e 5872     		strb	r0, [r3, #9]
 254:Lib/ssc_app/src/el9800appl.c ****     Can1_TxMessage.DLC = 0;
 251              		.loc 1 254 5 is_stmt 1 view .LVU53
 252              		.loc 1 254 24 is_stmt 0 view .LVU54
 253 0080 9872     		strb	r0, [r3, #10]
 255:Lib/ssc_app/src/el9800appl.c ****     
 256:Lib/ssc_app/src/el9800appl.c ****     Can1_TxMessage.Data[0] = 0;
 254              		.loc 1 256 5 is_stmt 1 view .LVU55
 255              		.loc 1 256 28 is_stmt 0 view .LVU56
 256 0082 D872     		strb	r0, [r3, #11]
 257:Lib/ssc_app/src/el9800appl.c ****     Can1_TxMessage.Data[1] = 0;
 257              		.loc 1 257 5 is_stmt 1 view .LVU57
 258              		.loc 1 257 28 is_stmt 0 view .LVU58
 259 0084 1873     		strb	r0, [r3, #12]
 258:Lib/ssc_app/src/el9800appl.c ****     Can1_TxMessage.Data[2] = 0;
 260              		.loc 1 258 5 is_stmt 1 view .LVU59
 261              		.loc 1 258 28 is_stmt 0 view .LVU60
 262 0086 5873     		strb	r0, [r3, #13]
 259:Lib/ssc_app/src/el9800appl.c ****     Can1_TxMessage.Data[3] = 0;
 263              		.loc 1 259 5 is_stmt 1 view .LVU61
 264              		.loc 1 259 28 is_stmt 0 view .LVU62
 265 0088 9873     		strb	r0, [r3, #14]
 260:Lib/ssc_app/src/el9800appl.c ****     Can1_TxMessage.Data[4] = 0;
 266              		.loc 1 260 5 is_stmt 1 view .LVU63
ARM GAS  /tmp/cceYAhwt.s 			page 10


 267              		.loc 1 260 28 is_stmt 0 view .LVU64
 268 008a D873     		strb	r0, [r3, #15]
 261:Lib/ssc_app/src/el9800appl.c ****     Can1_TxMessage.Data[5] = 0;
 269              		.loc 1 261 5 is_stmt 1 view .LVU65
 270              		.loc 1 261 28 is_stmt 0 view .LVU66
 271 008c 1874     		strb	r0, [r3, #16]
 262:Lib/ssc_app/src/el9800appl.c ****     Can1_TxMessage.Data[6] = 0;
 272              		.loc 1 262 5 is_stmt 1 view .LVU67
 273              		.loc 1 262 28 is_stmt 0 view .LVU68
 274 008e 5874     		strb	r0, [r3, #17]
 263:Lib/ssc_app/src/el9800appl.c ****     Can1_TxMessage.Data[7] = 0;
 275              		.loc 1 263 5 is_stmt 1 view .LVU69
 276              		.loc 1 263 28 is_stmt 0 view .LVU70
 277 0090 9874     		strb	r0, [r3, #18]
 264:Lib/ssc_app/src/el9800appl.c **** 
 265:Lib/ssc_app/src/el9800appl.c ****     /*ECATCHANGE_END(V5.11) EL9800 1*/
 266:Lib/ssc_app/src/el9800appl.c ****     return ALSTATUSCODE_NOERROR;
 278              		.loc 1 266 5 is_stmt 1 view .LVU71
 267:Lib/ssc_app/src/el9800appl.c **** }
 279              		.loc 1 267 1 is_stmt 0 view .LVU72
 280 0092 10BD     		pop	{r4, pc}
 281              	.L8:
 238:Lib/ssc_app/src/el9800appl.c ****     }
 282              		.loc 1 238 9 is_stmt 1 view .LVU73
 283 0094 4FF48041 		mov	r1, #16384
 284 0098 0548     		ldr	r0, .L13+4
 285 009a FFF7FEFF 		bl	GPIO_ResetBits
 286              	.LVL6:
 287 009e DFE7     		b	.L9
 288              	.L10:
 247:Lib/ssc_app/src/el9800appl.c ****     }
 289              		.loc 1 247 9 view .LVU74
 290 00a0 4FF40051 		mov	r1, #8192
 291 00a4 0248     		ldr	r0, .L13+4
 292 00a6 FFF7FEFF 		bl	GPIO_ResetBits
 293              	.LVL7:
 294 00aa E3E7     		b	.L11
 295              	.L14:
 296              		.align	2
 297              	.L13:
 298 00ac 00000000 		.word	.LANCHOR0
 299 00b0 00040240 		.word	1073873920
 300 00b4 00000000 		.word	Can1_TxMessage
 301              		.cfi_endproc
 302              	.LFE129:
 304              		.section	.text.APPL_GenerateMapping,"ax",%progbits
 305              		.align	1
 306              		.global	APPL_GenerateMapping
 307              		.syntax unified
 308              		.thumb
 309              		.thumb_func
 311              	APPL_GenerateMapping:
 312              	.LVL8:
 313              	.LFB130:
 268:Lib/ssc_app/src/el9800appl.c **** 
 269:Lib/ssc_app/src/el9800appl.c **** /////////////////////////////////////////////////////////////////////////////////////////
 270:Lib/ssc_app/src/el9800appl.c **** /**
ARM GAS  /tmp/cceYAhwt.s 			page 11


 271:Lib/ssc_app/src/el9800appl.c **** \return     0(ALSTATUSCODE_NOERROR), NOERROR_INWORK
 272:Lib/ssc_app/src/el9800appl.c **** \param      pInputSize  pointer to save the input process data length
 273:Lib/ssc_app/src/el9800appl.c **** \param      pOutputSize  pointer to save the output process data length
 274:Lib/ssc_app/src/el9800appl.c **** 
 275:Lib/ssc_app/src/el9800appl.c **** \brief    This function calculates the process data sizes from the actual SM-PDO-Assign
 276:Lib/ssc_app/src/el9800appl.c ****             and PDO mapping
 277:Lib/ssc_app/src/el9800appl.c **** */
 278:Lib/ssc_app/src/el9800appl.c **** ///////////////////////////////////////////////////////////////////////////////////////
 279:Lib/ssc_app/src/el9800appl.c **** UINT16 APPL_GenerateMapping(UINT16 *pInputSize, UINT16 *pOutputSize)
 280:Lib/ssc_app/src/el9800appl.c **** {
 314              		.loc 1 280 1 view -0
 315              		.cfi_startproc
 316              		@ args = 0, pretend = 0, frame = 8
 317              		@ frame_needed = 0, uses_anonymous_args = 0
 318              		.loc 1 280 1 is_stmt 0 view .LVU76
 319 0000 2DE9F04F 		push	{r4, r5, r6, r7, r8, r9, r10, fp, lr}
 320              		.cfi_def_cfa_offset 36
 321              		.cfi_offset 4, -36
 322              		.cfi_offset 5, -32
 323              		.cfi_offset 6, -28
 324              		.cfi_offset 7, -24
 325              		.cfi_offset 8, -20
 326              		.cfi_offset 9, -16
 327              		.cfi_offset 10, -12
 328              		.cfi_offset 11, -8
 329              		.cfi_offset 14, -4
 330 0004 83B0     		sub	sp, sp, #12
 331              		.cfi_def_cfa_offset 48
 332 0006 0090     		str	r0, [sp]
 333 0008 0191     		str	r1, [sp, #4]
 281:Lib/ssc_app/src/el9800appl.c **** #if COE_SUPPORTED
 282:Lib/ssc_app/src/el9800appl.c ****     UINT16 result = ALSTATUSCODE_NOERROR;
 334              		.loc 1 282 5 is_stmt 1 view .LVU77
 335              	.LVL9:
 283:Lib/ssc_app/src/el9800appl.c ****     UINT16 PDOAssignEntryCnt = 0;
 336              		.loc 1 283 5 view .LVU78
 284:Lib/ssc_app/src/el9800appl.c ****     OBJCONST TOBJECT OBJMEM *pPDO = NULL;
 337              		.loc 1 284 5 view .LVU79
 285:Lib/ssc_app/src/el9800appl.c ****     UINT16 PDOSubindex0 = 0;
 338              		.loc 1 285 5 view .LVU80
 286:Lib/ssc_app/src/el9800appl.c ****     UINT32 *pPDOEntry = NULL;
 339              		.loc 1 286 5 view .LVU81
 287:Lib/ssc_app/src/el9800appl.c ****     UINT16 PDOEntryCnt = 0;
 340              		.loc 1 287 5 view .LVU82
 288:Lib/ssc_app/src/el9800appl.c ****     UINT16 InputSize = 0;
 341              		.loc 1 288 5 view .LVU83
 289:Lib/ssc_app/src/el9800appl.c ****     UINT16 OutputSize = 0;
 342              		.loc 1 289 5 view .LVU84
 290:Lib/ssc_app/src/el9800appl.c **** 
 291:Lib/ssc_app/src/el9800appl.c ****     /*Scan object 0x1C12 RXPDO assign*/
 292:Lib/ssc_app/src/el9800appl.c ****     for (PDOAssignEntryCnt = 0; PDOAssignEntryCnt < sRxPDOassign.u16SubIndex0; PDOAssignEntryCnt++)
 343              		.loc 1 292 5 view .LVU85
 289:Lib/ssc_app/src/el9800appl.c ****     UINT16 OutputSize = 0;
 344              		.loc 1 289 12 is_stmt 0 view .LVU86
 345 000a 0026     		movs	r6, #0
 346              		.loc 1 292 28 view .LVU87
 347 000c B046     		mov	r8, r6
ARM GAS  /tmp/cceYAhwt.s 			page 12


 348              		.loc 1 292 5 view .LVU88
 349 000e 14E0     		b	.L16
 350              	.LVL10:
 351              	.L19:
 293:Lib/ssc_app/src/el9800appl.c ****     {
 294:Lib/ssc_app/src/el9800appl.c ****         pPDO = OBJ_GetObjectHandle(sRxPDOassign.aEntries[PDOAssignEntryCnt]);
 295:Lib/ssc_app/src/el9800appl.c ****         if (pPDO != NULL)
 296:Lib/ssc_app/src/el9800appl.c ****         {
 297:Lib/ssc_app/src/el9800appl.c ****             PDOSubindex0 = *((UINT16 *)pPDO->pVarPtr);
 298:Lib/ssc_app/src/el9800appl.c ****             for (PDOEntryCnt = 0; PDOEntryCnt < PDOSubindex0; PDOEntryCnt++)
 299:Lib/ssc_app/src/el9800appl.c ****             {
 300:Lib/ssc_app/src/el9800appl.c ****                 //				result = *(UINT8 *)pPDO->pVarPtr;
 301:Lib/ssc_app/src/el9800appl.c ****                 //				result=(OBJ_GetEntryOffset((PDOEntryCnt+1),pPDO)>>3);
 302:Lib/ssc_app/src/el9800appl.c ****                 pPDOEntry = (UINT32 *)((UINT8 *)pPDO->pVarPtr + (OBJ_GetEntryOffset((PDOEntryCnt + 
 352              		.loc 1 302 17 is_stmt 1 discriminator 3 view .LVU89
 353              		.loc 1 302 53 is_stmt 0 discriminator 3 view .LVU90
 354 0010 D5F81890 		ldr	r9, [r5, #24]
 355              		.loc 1 302 66 discriminator 3 view .LVU91
 356 0014 601C     		adds	r0, r4, #1
 357 0016 2946     		mov	r1, r5
 358 0018 C0B2     		uxtb	r0, r0
 359 001a FFF7FEFF 		bl	OBJ_GetEntryOffset
 360              	.LVL11:
 361              		.loc 1 302 110 discriminator 3 view .LVU92
 362 001e C0F3CF00 		ubfx	r0, r0, #3, #16
 363              	.LVL12:
 303:Lib/ssc_app/src/el9800appl.c ****                 // we increment the expected output size depending on the mapped Entry
 304:Lib/ssc_app/src/el9800appl.c ****                 OutputSize += (UINT16)((*pPDOEntry) & 0xFF);
 364              		.loc 1 304 17 is_stmt 1 discriminator 3 view .LVU93
 365              		.loc 1 304 31 is_stmt 0 discriminator 3 view .LVU94
 366 0022 19F80030 		ldrb	r3, [r9, r0]	@ zero_extendqisi2
 367              		.loc 1 304 28 discriminator 3 view .LVU95
 368 0026 3344     		add	r3, r3, r6
 369 0028 9EB2     		uxth	r6, r3
 370              	.LVL13:
 298:Lib/ssc_app/src/el9800appl.c ****             {
 371              		.loc 1 298 63 is_stmt 1 discriminator 3 view .LVU96
 298:Lib/ssc_app/src/el9800appl.c ****             {
 372              		.loc 1 298 74 is_stmt 0 discriminator 3 view .LVU97
 373 002a 0134     		adds	r4, r4, #1
 374              	.LVL14:
 298:Lib/ssc_app/src/el9800appl.c ****             {
 375              		.loc 1 298 74 discriminator 3 view .LVU98
 376 002c A4B2     		uxth	r4, r4
 377              	.LVL15:
 378              	.L18:
 298:Lib/ssc_app/src/el9800appl.c ****             {
 379              		.loc 1 298 35 is_stmt 1 discriminator 1 view .LVU99
 298:Lib/ssc_app/src/el9800appl.c ****             {
 380              		.loc 1 298 13 is_stmt 0 discriminator 1 view .LVU100
 381 002e BC42     		cmp	r4, r7
 382 0030 EED3     		bcc	.L19
 292:Lib/ssc_app/src/el9800appl.c ****     {
 383              		.loc 1 292 80 is_stmt 1 discriminator 2 view .LVU101
 292:Lib/ssc_app/src/el9800appl.c ****     {
 384              		.loc 1 292 97 is_stmt 0 discriminator 2 view .LVU102
 385 0032 08F10108 		add	r8, r8, #1
ARM GAS  /tmp/cceYAhwt.s 			page 13


 386              	.LVL16:
 292:Lib/ssc_app/src/el9800appl.c ****     {
 387              		.loc 1 292 97 discriminator 2 view .LVU103
 388 0036 1FFA88F8 		uxth	r8, r8
 389              	.LVL17:
 390              	.L16:
 292:Lib/ssc_app/src/el9800appl.c ****     {
 391              		.loc 1 292 33 is_stmt 1 discriminator 1 view .LVU104
 292:Lib/ssc_app/src/el9800appl.c ****     {
 392              		.loc 1 292 65 is_stmt 0 discriminator 1 view .LVU105
 393 003a 2A4B     		ldr	r3, .L31
 394 003c 1B88     		ldrh	r3, [r3]
 292:Lib/ssc_app/src/el9800appl.c ****     {
 395              		.loc 1 292 5 discriminator 1 view .LVU106
 396 003e 4345     		cmp	r3, r8
 397 0040 0BD9     		bls	.L30
 294:Lib/ssc_app/src/el9800appl.c ****         if (pPDO != NULL)
 398              		.loc 1 294 9 is_stmt 1 view .LVU107
 294:Lib/ssc_app/src/el9800appl.c ****         if (pPDO != NULL)
 399              		.loc 1 294 16 is_stmt 0 view .LVU108
 400 0042 284B     		ldr	r3, .L31
 401 0044 03EB4803 		add	r3, r3, r8, lsl #1
 402 0048 5888     		ldrh	r0, [r3, #2]
 403 004a FFF7FEFF 		bl	OBJ_GetObjectHandle
 404              	.LVL18:
 295:Lib/ssc_app/src/el9800appl.c ****         {
 405              		.loc 1 295 9 is_stmt 1 view .LVU109
 295:Lib/ssc_app/src/el9800appl.c ****         {
 406              		.loc 1 295 12 is_stmt 0 view .LVU110
 407 004e 0546     		mov	r5, r0
 408 0050 C0B1     		cbz	r0, .L26
 297:Lib/ssc_app/src/el9800appl.c ****             for (PDOEntryCnt = 0; PDOEntryCnt < PDOSubindex0; PDOEntryCnt++)
 409              		.loc 1 297 13 is_stmt 1 view .LVU111
 297:Lib/ssc_app/src/el9800appl.c ****             for (PDOEntryCnt = 0; PDOEntryCnt < PDOSubindex0; PDOEntryCnt++)
 410              		.loc 1 297 44 is_stmt 0 view .LVU112
 411 0052 8369     		ldr	r3, [r0, #24]
 297:Lib/ssc_app/src/el9800appl.c ****             for (PDOEntryCnt = 0; PDOEntryCnt < PDOSubindex0; PDOEntryCnt++)
 412              		.loc 1 297 26 view .LVU113
 413 0054 1F88     		ldrh	r7, [r3]
 414              	.LVL19:
 298:Lib/ssc_app/src/el9800appl.c ****             {
 415              		.loc 1 298 13 is_stmt 1 view .LVU114
 298:Lib/ssc_app/src/el9800appl.c ****             {
 416              		.loc 1 298 30 is_stmt 0 view .LVU115
 417 0056 0024     		movs	r4, #0
 298:Lib/ssc_app/src/el9800appl.c ****             {
 418              		.loc 1 298 13 view .LVU116
 419 0058 E9E7     		b	.L18
 420              	.LVL20:
 421              	.L30:
 282:Lib/ssc_app/src/el9800appl.c ****     UINT16 PDOAssignEntryCnt = 0;
 422              		.loc 1 282 12 view .LVU117
 423 005a 4FF0000B 		mov	fp, #0
 424              	.LVL21:
 425              	.L17:
 305:Lib/ssc_app/src/el9800appl.c ****             }
 306:Lib/ssc_app/src/el9800appl.c ****         }
ARM GAS  /tmp/cceYAhwt.s 			page 14


 307:Lib/ssc_app/src/el9800appl.c ****         else
 308:Lib/ssc_app/src/el9800appl.c ****         {
 309:Lib/ssc_app/src/el9800appl.c ****             /*assigned PDO was not found in object dictionary. return invalid mapping*/
 310:Lib/ssc_app/src/el9800appl.c ****             OutputSize = 0;
 311:Lib/ssc_app/src/el9800appl.c ****             result = ALSTATUSCODE_INVALIDOUTPUTMAPPING;
 312:Lib/ssc_app/src/el9800appl.c ****             break;
 313:Lib/ssc_app/src/el9800appl.c ****         }
 314:Lib/ssc_app/src/el9800appl.c ****     }
 315:Lib/ssc_app/src/el9800appl.c **** 
 316:Lib/ssc_app/src/el9800appl.c ****     OutputSize = (OutputSize + 7) >> 3;
 426              		.loc 1 316 5 is_stmt 1 view .LVU118
 427              		.loc 1 316 30 is_stmt 0 view .LVU119
 428 005e F31D     		adds	r3, r6, #7
 429              		.loc 1 316 16 view .LVU120
 430 0060 C3F3CF08 		ubfx	r8, r3, #3, #16
 431              	.LVL22:
 317:Lib/ssc_app/src/el9800appl.c **** 
 318:Lib/ssc_app/src/el9800appl.c ****     if (result == 0)
 432              		.loc 1 318 5 is_stmt 1 view .LVU121
 433              		.loc 1 318 8 is_stmt 0 view .LVU122
 434 0064 BBF1000F 		cmp	fp, #0
 435 0068 34D0     		beq	.L27
 288:Lib/ssc_app/src/el9800appl.c ****     UINT16 OutputSize = 0;
 436              		.loc 1 288 12 view .LVU123
 437 006a 0027     		movs	r7, #0
 438              	.LVL23:
 439              	.L22:
 319:Lib/ssc_app/src/el9800appl.c ****     {
 320:Lib/ssc_app/src/el9800appl.c ****         /*Scan Object 0x1C13 TXPDO assign*/
 321:Lib/ssc_app/src/el9800appl.c ****         for (PDOAssignEntryCnt = 0; PDOAssignEntryCnt < sTxPDOassign.u16SubIndex0; PDOAssignEntryCn
 322:Lib/ssc_app/src/el9800appl.c ****         {
 323:Lib/ssc_app/src/el9800appl.c ****             pPDO = OBJ_GetObjectHandle(sTxPDOassign.aEntries[PDOAssignEntryCnt]);
 324:Lib/ssc_app/src/el9800appl.c ****             if (pPDO != NULL)
 325:Lib/ssc_app/src/el9800appl.c ****             {
 326:Lib/ssc_app/src/el9800appl.c ****                 PDOSubindex0 = *((UINT16 *)pPDO->pVarPtr);
 327:Lib/ssc_app/src/el9800appl.c ****                 for (PDOEntryCnt = 0; PDOEntryCnt < PDOSubindex0; PDOEntryCnt++)
 328:Lib/ssc_app/src/el9800appl.c ****                 {
 329:Lib/ssc_app/src/el9800appl.c ****                     pPDOEntry = (UINT32 *)((UINT8 *)pPDO->pVarPtr + (OBJ_GetEntryOffset((PDOEntryCn
 330:Lib/ssc_app/src/el9800appl.c ****                     // we increment the expected output size depending on the mapped Entry
 331:Lib/ssc_app/src/el9800appl.c ****                     InputSize += (UINT16)((*pPDOEntry) & 0xFF);
 332:Lib/ssc_app/src/el9800appl.c ****                 }
 333:Lib/ssc_app/src/el9800appl.c ****             }
 334:Lib/ssc_app/src/el9800appl.c ****             else
 335:Lib/ssc_app/src/el9800appl.c ****             {
 336:Lib/ssc_app/src/el9800appl.c ****                 /*assigned PDO was not found in object dictionary. return invalid mapping*/
 337:Lib/ssc_app/src/el9800appl.c ****                 InputSize = 0;
 338:Lib/ssc_app/src/el9800appl.c ****                 result = ALSTATUSCODE_INVALIDINPUTMAPPING;
 339:Lib/ssc_app/src/el9800appl.c ****                 break;
 340:Lib/ssc_app/src/el9800appl.c ****             }
 341:Lib/ssc_app/src/el9800appl.c ****         }
 342:Lib/ssc_app/src/el9800appl.c ****     }
 343:Lib/ssc_app/src/el9800appl.c ****     InputSize = (InputSize + 7) >> 3;
 440              		.loc 1 343 5 is_stmt 1 view .LVU124
 441              		.loc 1 343 28 is_stmt 0 view .LVU125
 442 006c FB1D     		adds	r3, r7, #7
 443              		.loc 1 343 15 view .LVU126
 444 006e C3F3CF03 		ubfx	r3, r3, #3, #16
ARM GAS  /tmp/cceYAhwt.s 			page 15


 445              	.LVL24:
 344:Lib/ssc_app/src/el9800appl.c **** 
 345:Lib/ssc_app/src/el9800appl.c ****     *pInputSize = InputSize;
 446              		.loc 1 345 5 is_stmt 1 view .LVU127
 447              		.loc 1 345 17 is_stmt 0 view .LVU128
 448 0072 009A     		ldr	r2, [sp]
 449 0074 1380     		strh	r3, [r2]	@ movhi
 346:Lib/ssc_app/src/el9800appl.c ****     *pOutputSize = OutputSize;
 450              		.loc 1 346 5 is_stmt 1 view .LVU129
 451              		.loc 1 346 18 is_stmt 0 view .LVU130
 452 0076 019B     		ldr	r3, [sp, #4]
 453              	.LVL25:
 454              		.loc 1 346 18 view .LVU131
 455 0078 A3F80080 		strh	r8, [r3]	@ movhi
 456              	.LVL26:
 347:Lib/ssc_app/src/el9800appl.c ****     return result;
 457              		.loc 1 347 5 is_stmt 1 view .LVU132
 348:Lib/ssc_app/src/el9800appl.c **** #else
 349:Lib/ssc_app/src/el9800appl.c ****     *pInputSize = 6;
 350:Lib/ssc_app/src/el9800appl.c ****     *pOutputSize = 2;
 351:Lib/ssc_app/src/el9800appl.c ****     return ALSTATUSCODE_NOERROR;
 352:Lib/ssc_app/src/el9800appl.c **** #endif
 353:Lib/ssc_app/src/el9800appl.c **** }
 458              		.loc 1 353 1 is_stmt 0 view .LVU133
 459 007c 5846     		mov	r0, fp
 460 007e 03B0     		add	sp, sp, #12
 461              		.cfi_remember_state
 462              		.cfi_def_cfa_offset 36
 463              	.LVL27:
 464              		.loc 1 353 1 view .LVU134
 465              		@ sp needed
 466 0080 BDE8F08F 		pop	{r4, r5, r6, r7, r8, r9, r10, fp, pc}
 467              	.LVL28:
 468              	.L26:
 469              		.cfi_restore_state
 310:Lib/ssc_app/src/el9800appl.c ****             result = ALSTATUSCODE_INVALIDOUTPUTMAPPING;
 470              		.loc 1 310 24 view .LVU135
 471 0084 0026     		movs	r6, #0
 472              	.LVL29:
 311:Lib/ssc_app/src/el9800appl.c ****             break;
 473              		.loc 1 311 20 view .LVU136
 474 0086 4FF0250B 		mov	fp, #37
 475 008a E8E7     		b	.L17
 476              	.LVL30:
 477              	.L24:
 329:Lib/ssc_app/src/el9800appl.c ****                     // we increment the expected output size depending on the mapped Entry
 478              		.loc 1 329 21 is_stmt 1 discriminator 3 view .LVU137
 329:Lib/ssc_app/src/el9800appl.c ****                     // we increment the expected output size depending on the mapped Entry
 479              		.loc 1 329 57 is_stmt 0 discriminator 3 view .LVU138
 480 008c B569     		ldr	r5, [r6, #24]
 329:Lib/ssc_app/src/el9800appl.c ****                     // we increment the expected output size depending on the mapped Entry
 481              		.loc 1 329 70 discriminator 3 view .LVU139
 482 008e 601C     		adds	r0, r4, #1
 483 0090 3146     		mov	r1, r6
 484 0092 C0B2     		uxtb	r0, r0
 485 0094 FFF7FEFF 		bl	OBJ_GetEntryOffset
 486              	.LVL31:
ARM GAS  /tmp/cceYAhwt.s 			page 16


 329:Lib/ssc_app/src/el9800appl.c ****                     // we increment the expected output size depending on the mapped Entry
 487              		.loc 1 329 114 discriminator 3 view .LVU140
 488 0098 C0F3CF00 		ubfx	r0, r0, #3, #16
 489              	.LVL32:
 331:Lib/ssc_app/src/el9800appl.c ****                 }
 490              		.loc 1 331 21 is_stmt 1 discriminator 3 view .LVU141
 331:Lib/ssc_app/src/el9800appl.c ****                 }
 491              		.loc 1 331 34 is_stmt 0 discriminator 3 view .LVU142
 492 009c 2B5C     		ldrb	r3, [r5, r0]	@ zero_extendqisi2
 331:Lib/ssc_app/src/el9800appl.c ****                 }
 493              		.loc 1 331 31 discriminator 3 view .LVU143
 494 009e 1F44     		add	r7, r7, r3
 495              	.LVL33:
 331:Lib/ssc_app/src/el9800appl.c ****                 }
 496              		.loc 1 331 31 discriminator 3 view .LVU144
 497 00a0 BFB2     		uxth	r7, r7
 498              	.LVL34:
 327:Lib/ssc_app/src/el9800appl.c ****                 {
 499              		.loc 1 327 67 is_stmt 1 discriminator 3 view .LVU145
 327:Lib/ssc_app/src/el9800appl.c ****                 {
 500              		.loc 1 327 78 is_stmt 0 discriminator 3 view .LVU146
 501 00a2 0134     		adds	r4, r4, #1
 502              	.LVL35:
 327:Lib/ssc_app/src/el9800appl.c ****                 {
 503              		.loc 1 327 78 discriminator 3 view .LVU147
 504 00a4 A4B2     		uxth	r4, r4
 505              	.LVL36:
 506              	.L23:
 327:Lib/ssc_app/src/el9800appl.c ****                 {
 507              		.loc 1 327 39 is_stmt 1 discriminator 1 view .LVU148
 327:Lib/ssc_app/src/el9800appl.c ****                 {
 508              		.loc 1 327 17 is_stmt 0 discriminator 1 view .LVU149
 509 00a6 4C45     		cmp	r4, r9
 510 00a8 F0D3     		bcc	.L24
 321:Lib/ssc_app/src/el9800appl.c ****         {
 511              		.loc 1 321 84 is_stmt 1 discriminator 2 view .LVU150
 321:Lib/ssc_app/src/el9800appl.c ****         {
 512              		.loc 1 321 101 is_stmt 0 discriminator 2 view .LVU151
 513 00aa 0AF1010A 		add	r10, r10, #1
 514              	.LVL37:
 321:Lib/ssc_app/src/el9800appl.c ****         {
 515              		.loc 1 321 101 discriminator 2 view .LVU152
 516 00ae 1FFA8AFA 		uxth	r10, r10
 517              	.LVL38:
 518              	.L21:
 321:Lib/ssc_app/src/el9800appl.c ****         {
 519              		.loc 1 321 37 is_stmt 1 discriminator 1 view .LVU153
 321:Lib/ssc_app/src/el9800appl.c ****         {
 520              		.loc 1 321 69 is_stmt 0 discriminator 1 view .LVU154
 521 00b2 0D4B     		ldr	r3, .L31+4
 522 00b4 1B88     		ldrh	r3, [r3]
 321:Lib/ssc_app/src/el9800appl.c ****         {
 523              		.loc 1 321 9 discriminator 1 view .LVU155
 524 00b6 5345     		cmp	r3, r10
 525 00b8 D8D9     		bls	.L22
 323:Lib/ssc_app/src/el9800appl.c ****             if (pPDO != NULL)
 526              		.loc 1 323 13 is_stmt 1 view .LVU156
ARM GAS  /tmp/cceYAhwt.s 			page 17


 323:Lib/ssc_app/src/el9800appl.c ****             if (pPDO != NULL)
 527              		.loc 1 323 20 is_stmt 0 view .LVU157
 528 00ba 0B4B     		ldr	r3, .L31+4
 529 00bc 03EB4A03 		add	r3, r3, r10, lsl #1
 530 00c0 5888     		ldrh	r0, [r3, #2]
 531 00c2 FFF7FEFF 		bl	OBJ_GetObjectHandle
 532              	.LVL39:
 324:Lib/ssc_app/src/el9800appl.c ****             {
 533              		.loc 1 324 13 is_stmt 1 view .LVU158
 324:Lib/ssc_app/src/el9800appl.c ****             {
 534              		.loc 1 324 16 is_stmt 0 view .LVU159
 535 00c6 0646     		mov	r6, r0
 536 00c8 38B1     		cbz	r0, .L28
 326:Lib/ssc_app/src/el9800appl.c ****                 for (PDOEntryCnt = 0; PDOEntryCnt < PDOSubindex0; PDOEntryCnt++)
 537              		.loc 1 326 17 is_stmt 1 view .LVU160
 326:Lib/ssc_app/src/el9800appl.c ****                 for (PDOEntryCnt = 0; PDOEntryCnt < PDOSubindex0; PDOEntryCnt++)
 538              		.loc 1 326 48 is_stmt 0 view .LVU161
 539 00ca 8369     		ldr	r3, [r0, #24]
 326:Lib/ssc_app/src/el9800appl.c ****                 for (PDOEntryCnt = 0; PDOEntryCnt < PDOSubindex0; PDOEntryCnt++)
 540              		.loc 1 326 30 view .LVU162
 541 00cc B3F80090 		ldrh	r9, [r3]
 542              	.LVL40:
 327:Lib/ssc_app/src/el9800appl.c ****                 {
 543              		.loc 1 327 17 is_stmt 1 view .LVU163
 327:Lib/ssc_app/src/el9800appl.c ****                 {
 544              		.loc 1 327 34 is_stmt 0 view .LVU164
 545 00d0 5C46     		mov	r4, fp
 327:Lib/ssc_app/src/el9800appl.c ****                 {
 546              		.loc 1 327 17 view .LVU165
 547 00d2 E8E7     		b	.L23
 548              	.LVL41:
 549              	.L27:
 288:Lib/ssc_app/src/el9800appl.c ****     UINT16 OutputSize = 0;
 550              		.loc 1 288 12 view .LVU166
 551 00d4 5F46     		mov	r7, fp
 321:Lib/ssc_app/src/el9800appl.c ****         {
 552              		.loc 1 321 32 view .LVU167
 553 00d6 DA46     		mov	r10, fp
 554 00d8 EBE7     		b	.L21
 555              	.LVL42:
 556              	.L28:
 337:Lib/ssc_app/src/el9800appl.c ****                 result = ALSTATUSCODE_INVALIDINPUTMAPPING;
 557              		.loc 1 337 27 view .LVU168
 558 00da 5F46     		mov	r7, fp
 559              	.LVL43:
 338:Lib/ssc_app/src/el9800appl.c ****                 break;
 560              		.loc 1 338 24 view .LVU169
 561 00dc 4FF0240B 		mov	fp, #36
 562              	.LVL44:
 338:Lib/ssc_app/src/el9800appl.c ****                 break;
 563              		.loc 1 338 24 view .LVU170
 564 00e0 C4E7     		b	.L22
 565              	.L32:
 566 00e2 00BF     		.align	2
 567              	.L31:
 568 00e4 00000000 		.word	.LANCHOR1
 569 00e8 00000000 		.word	.LANCHOR2
ARM GAS  /tmp/cceYAhwt.s 			page 18


 570              		.cfi_endproc
 571              	.LFE130:
 573              		.section	.text.APPL_InputMapping,"ax",%progbits
 574              		.align	1
 575              		.global	APPL_InputMapping
 576              		.syntax unified
 577              		.thumb
 578              		.thumb_func
 580              	APPL_InputMapping:
 581              	.LVL45:
 582              	.LFB131:
 354:Lib/ssc_app/src/el9800appl.c **** 
 355:Lib/ssc_app/src/el9800appl.c **** /////////////////////////////////////////////////////////////////////////////////////////
 356:Lib/ssc_app/src/el9800appl.c **** /**
 357:Lib/ssc_app/src/el9800appl.c **** \param      pData  pointer to input process data
 358:Lib/ssc_app/src/el9800appl.c **** \brief      This function will copies the inputs from the local memory to the ESC memory
 359:Lib/ssc_app/src/el9800appl.c ****             to the hardware
 360:Lib/ssc_app/src/el9800appl.c **** */
 361:Lib/ssc_app/src/el9800appl.c **** ///////////////////////////////////////////////////////////////////////////////////////
 362:Lib/ssc_app/src/el9800appl.c **** #if _STM32_IO4 && AL_EVENT_ENABLED
 363:Lib/ssc_app/src/el9800appl.c **** /* the pragma interrupt_level is used to tell the compiler that these functions will not
 364:Lib/ssc_app/src/el9800appl.c ****    be called at the same time from the main function and the interrupt routine */
 365:Lib/ssc_app/src/el9800appl.c **** #pragma interrupt_level 1
 366:Lib/ssc_app/src/el9800appl.c **** #endif
 367:Lib/ssc_app/src/el9800appl.c **** void APPL_InputMapping(UINT16 *pData)
 368:Lib/ssc_app/src/el9800appl.c **** {
 583              		.loc 1 368 1 is_stmt 1 view -0
 584              		.cfi_startproc
 585              		@ args = 0, pretend = 0, frame = 0
 586              		@ frame_needed = 0, uses_anonymous_args = 0
 587              		@ link register save eliminated.
 369:Lib/ssc_app/src/el9800appl.c ****     UINT16 j = 0;
 588              		.loc 1 369 5 view .LVU172
 370:Lib/ssc_app/src/el9800appl.c ****     UINT16 *pTmpData = (UINT16 *)pData;
 589              		.loc 1 370 5 view .LVU173
 371:Lib/ssc_app/src/el9800appl.c **** 
 372:Lib/ssc_app/src/el9800appl.c ****     /* we go through all entries of the TxPDO Assign object to get the assigned TxPDOs */
 373:Lib/ssc_app/src/el9800appl.c ****     for (j = 0; j < sTxPDOassign.u16SubIndex0; j++)
 590              		.loc 1 373 5 view .LVU174
 591              		.loc 1 373 12 is_stmt 0 view .LVU175
 592 0000 0023     		movs	r3, #0
 593              		.loc 1 373 5 view .LVU176
 594 0002 05E0     		b	.L34
 595              	.LVL46:
 596              	.L35:
 374:Lib/ssc_app/src/el9800appl.c ****     {
 375:Lib/ssc_app/src/el9800appl.c ****         switch (sTxPDOassign.aEntries[j])
 376:Lib/ssc_app/src/el9800appl.c ****         {
 377:Lib/ssc_app/src/el9800appl.c ****         /* TxPDO 1 */
 378:Lib/ssc_app/src/el9800appl.c ****         case 0x1A00:
 379:Lib/ssc_app/src/el9800appl.c ****             *pTmpData++ = SWAPWORD(((UINT16 *)&sDIInputs)[1]);
 597              		.loc 1 379 13 is_stmt 1 view .LVU177
 598              		.loc 1 379 25 is_stmt 0 view .LVU178
 599 0004 0F4A     		ldr	r2, .L40
 600 0006 5288     		ldrh	r2, [r2, #2]
 601 0008 20F8022B 		strh	r2, [r0], #2	@ movhi
 602              	.LVL47:
ARM GAS  /tmp/cceYAhwt.s 			page 19


 380:Lib/ssc_app/src/el9800appl.c ****             break;
 603              		.loc 1 380 13 is_stmt 1 view .LVU179
 604              	.L37:
 373:Lib/ssc_app/src/el9800appl.c ****     {
 605              		.loc 1 373 48 discriminator 2 view .LVU180
 373:Lib/ssc_app/src/el9800appl.c ****     {
 606              		.loc 1 373 49 is_stmt 0 discriminator 2 view .LVU181
 607 000c 0133     		adds	r3, r3, #1
 608              	.LVL48:
 373:Lib/ssc_app/src/el9800appl.c ****     {
 609              		.loc 1 373 49 discriminator 2 view .LVU182
 610 000e 9BB2     		uxth	r3, r3
 611              	.LVL49:
 612              	.L34:
 373:Lib/ssc_app/src/el9800appl.c ****     {
 613              		.loc 1 373 17 is_stmt 1 discriminator 1 view .LVU183
 373:Lib/ssc_app/src/el9800appl.c ****     {
 614              		.loc 1 373 33 is_stmt 0 discriminator 1 view .LVU184
 615 0010 0D4A     		ldr	r2, .L40+4
 616 0012 1288     		ldrh	r2, [r2]
 373:Lib/ssc_app/src/el9800appl.c ****     {
 617              		.loc 1 373 5 discriminator 1 view .LVU185
 618 0014 9A42     		cmp	r2, r3
 619 0016 14D9     		bls	.L39
 375:Lib/ssc_app/src/el9800appl.c ****         {
 620              		.loc 1 375 9 is_stmt 1 view .LVU186
 375:Lib/ssc_app/src/el9800appl.c ****         {
 621              		.loc 1 375 38 is_stmt 0 view .LVU187
 622 0018 0B4A     		ldr	r2, .L40+4
 623 001a 02EB4302 		add	r2, r2, r3, lsl #1
 624 001e 5288     		ldrh	r2, [r2, #2]
 375:Lib/ssc_app/src/el9800appl.c ****         {
 625              		.loc 1 375 9 view .LVU188
 626 0020 B2F5D05F 		cmp	r2, #6656
 627 0024 EED0     		beq	.L35
 628 0026 41F60221 		movw	r1, #6658
 629 002a 8A42     		cmp	r2, r1
 630 002c EED1     		bne	.L37
 381:Lib/ssc_app/src/el9800appl.c ****         /* TxPDO 3 */
 382:Lib/ssc_app/src/el9800appl.c ****         case 0x1A02:
 383:Lib/ssc_app/src/el9800appl.c ****             *pTmpData++ = SWAPWORD(((UINT16 *)&sAIInputs)[1]);
 631              		.loc 1 383 13 is_stmt 1 view .LVU189
 632              	.LVL50:
 633              		.loc 1 383 25 is_stmt 0 view .LVU190
 634 002e 0749     		ldr	r1, .L40+8
 635 0030 B1F802C0 		ldrh	ip, [r1, #2]
 636 0034 0246     		mov	r2, r0
 637 0036 22F804CB 		strh	ip, [r2], #4	@ movhi
 384:Lib/ssc_app/src/el9800appl.c ****             *pTmpData++ = SWAPWORD(((UINT16 *)&sAIInputs)[2]);
 638              		.loc 1 384 13 is_stmt 1 view .LVU191
 639              	.LVL51:
 640              		.loc 1 384 25 is_stmt 0 view .LVU192
 641 003a 8988     		ldrh	r1, [r1, #4]
 642 003c 4180     		strh	r1, [r0, #2]	@ movhi
 385:Lib/ssc_app/src/el9800appl.c ****             break;
 643              		.loc 1 385 13 is_stmt 1 view .LVU193
 384:Lib/ssc_app/src/el9800appl.c ****             *pTmpData++ = SWAPWORD(((UINT16 *)&sAIInputs)[2]);
ARM GAS  /tmp/cceYAhwt.s 			page 20


 644              		.loc 1 384 22 is_stmt 0 view .LVU194
 645 003e 1046     		mov	r0, r2
 646              		.loc 1 385 13 view .LVU195
 647 0040 E4E7     		b	.L37
 648              	.LVL52:
 649              	.L39:
 386:Lib/ssc_app/src/el9800appl.c ****         }
 387:Lib/ssc_app/src/el9800appl.c ****     }
 388:Lib/ssc_app/src/el9800appl.c **** }
 650              		.loc 1 388 1 view .LVU196
 651 0042 7047     		bx	lr
 652              	.L41:
 653              		.align	2
 654              	.L40:
 655 0044 00000000 		.word	.LANCHOR3
 656 0048 00000000 		.word	.LANCHOR2
 657 004c 00000000 		.word	.LANCHOR4
 658              		.cfi_endproc
 659              	.LFE131:
 661              		.section	.text.APPL_OutputMapping,"ax",%progbits
 662              		.align	1
 663              		.global	APPL_OutputMapping
 664              		.syntax unified
 665              		.thumb
 666              		.thumb_func
 668              	APPL_OutputMapping:
 669              	.LVL53:
 670              	.LFB132:
 389:Lib/ssc_app/src/el9800appl.c **** 
 390:Lib/ssc_app/src/el9800appl.c **** /////////////////////////////////////////////////////////////////////////////////////////
 391:Lib/ssc_app/src/el9800appl.c **** /**
 392:Lib/ssc_app/src/el9800appl.c **** \param      pData  pointer to output process data
 393:Lib/ssc_app/src/el9800appl.c **** 
 394:Lib/ssc_app/src/el9800appl.c **** \brief    This function will copies the outputs from the ESC memory to the local memory
 395:Lib/ssc_app/src/el9800appl.c ****             to the hardware
 396:Lib/ssc_app/src/el9800appl.c **** */
 397:Lib/ssc_app/src/el9800appl.c **** ///////////////////////////////////////////////////////////////////////////////////////
 398:Lib/ssc_app/src/el9800appl.c **** #if _STM32_IO4 && AL_EVENT_ENABLED
 399:Lib/ssc_app/src/el9800appl.c **** /* the pragma interrupt_level is used to tell the compiler that these functions will not
 400:Lib/ssc_app/src/el9800appl.c ****    be called at the same time from the main function and the interrupt routine */
 401:Lib/ssc_app/src/el9800appl.c **** #pragma interrupt_level 1
 402:Lib/ssc_app/src/el9800appl.c **** #endif
 403:Lib/ssc_app/src/el9800appl.c **** void APPL_OutputMapping(UINT16 *pData)
 404:Lib/ssc_app/src/el9800appl.c **** {
 671              		.loc 1 404 1 is_stmt 1 view -0
 672              		.cfi_startproc
 673              		@ args = 0, pretend = 0, frame = 0
 674              		@ frame_needed = 0, uses_anonymous_args = 0
 675              		@ link register save eliminated.
 405:Lib/ssc_app/src/el9800appl.c ****     UINT16 j = 0;
 676              		.loc 1 405 5 view .LVU198
 406:Lib/ssc_app/src/el9800appl.c ****     UINT16 *pTmpData = (UINT16 *)pData;
 677              		.loc 1 406 5 view .LVU199
 407:Lib/ssc_app/src/el9800appl.c **** 
 408:Lib/ssc_app/src/el9800appl.c ****     /* we go through all entries of the RxPDO Assign object to get the assigned RxPDOs */
 409:Lib/ssc_app/src/el9800appl.c ****     for (j = 0; j < sRxPDOassign.u16SubIndex0; j++)
 678              		.loc 1 409 5 view .LVU200
ARM GAS  /tmp/cceYAhwt.s 			page 21


 679              		.loc 1 409 12 is_stmt 0 view .LVU201
 680 0000 0023     		movs	r3, #0
 681              		.loc 1 409 5 view .LVU202
 682 0002 01E0     		b	.L43
 683              	.LVL54:
 684              	.L44:
 685              		.loc 1 409 48 is_stmt 1 discriminator 2 view .LVU203
 686              		.loc 1 409 49 is_stmt 0 discriminator 2 view .LVU204
 687 0004 0133     		adds	r3, r3, #1
 688              	.LVL55:
 689              		.loc 1 409 49 discriminator 2 view .LVU205
 690 0006 9BB2     		uxth	r3, r3
 691              	.LVL56:
 692              	.L43:
 693              		.loc 1 409 17 is_stmt 1 discriminator 1 view .LVU206
 694              		.loc 1 409 33 is_stmt 0 discriminator 1 view .LVU207
 695 0008 204A     		ldr	r2, .L47
 696 000a 1288     		ldrh	r2, [r2]
 697              		.loc 1 409 5 discriminator 1 view .LVU208
 698 000c 9A42     		cmp	r2, r3
 699 000e 3BD9     		bls	.L46
 410:Lib/ssc_app/src/el9800appl.c ****     {
 411:Lib/ssc_app/src/el9800appl.c ****         switch (sRxPDOassign.aEntries[j])
 700              		.loc 1 411 9 is_stmt 1 view .LVU209
 701              		.loc 1 411 38 is_stmt 0 view .LVU210
 702 0010 1E4A     		ldr	r2, .L47
 703 0012 02EB4302 		add	r2, r2, r3, lsl #1
 704 0016 5188     		ldrh	r1, [r2, #2]
 705              		.loc 1 411 9 view .LVU211
 706 0018 41F20162 		movw	r2, #5633
 707 001c 9142     		cmp	r1, r2
 708 001e F1D1     		bne	.L44
 412:Lib/ssc_app/src/el9800appl.c ****         {
 413:Lib/ssc_app/src/el9800appl.c ****         /* RxPDO 2 */
 414:Lib/ssc_app/src/el9800appl.c ****         case 0x1601:
 415:Lib/ssc_app/src/el9800appl.c ****             ((UINT16 *)&sDOOutputs)[1] = SWAPWORD(*pTmpData);
 709              		.loc 1 415 13 is_stmt 1 view .LVU212
 710              		.loc 1 415 42 is_stmt 0 view .LVU213
 711 0020 0188     		ldrh	r1, [r0]
 712              		.loc 1 415 40 view .LVU214
 713 0022 1B4A     		ldr	r2, .L47+4
 714 0024 5180     		strh	r1, [r2, #2]	@ movhi
 416:Lib/ssc_app/src/el9800appl.c ****             ((UINT16 *)&sDOOutputs)[2] = (SWAPWORD(*pTmpData) >> 8 & 0xFF) | (SWAPWORD(*(pTmpData+1
 715              		.loc 1 416 13 is_stmt 1 view .LVU215
 716              		.loc 1 416 79 is_stmt 0 view .LVU216
 717 0026 B0F802C0 		ldrh	ip, [r0, #2]
 718              		.loc 1 416 76 view .LVU217
 719 002a 090A     		lsrs	r1, r1, #8
 720 002c 41EA0C21 		orr	r1, r1, ip, lsl #8
 721              		.loc 1 416 40 view .LVU218
 722 0030 9180     		strh	r1, [r2, #4]	@ movhi
 417:Lib/ssc_app/src/el9800appl.c ****             ((UINT16 *)&sDOOutputs)[3] = (SWAPWORD(*(pTmpData+1)) >> 8 & 0xFF) | (SWAPWORD(*(pTmpDa
 723              		.loc 1 417 13 is_stmt 1 view .LVU219
 724              		.loc 1 417 43 is_stmt 0 view .LVU220
 725 0032 4188     		ldrh	r1, [r0, #2]
 726              		.loc 1 417 83 view .LVU221
 727 0034 B0F804C0 		ldrh	ip, [r0, #4]
ARM GAS  /tmp/cceYAhwt.s 			page 22


 728              		.loc 1 417 80 view .LVU222
 729 0038 090A     		lsrs	r1, r1, #8
 730 003a 41EA0C21 		orr	r1, r1, ip, lsl #8
 731              		.loc 1 417 40 view .LVU223
 732 003e D180     		strh	r1, [r2, #6]	@ movhi
 418:Lib/ssc_app/src/el9800appl.c ****             ((UINT16 *)&sDOOutputs)[4] = (SWAPWORD(*(pTmpData+2)) >> 8 & 0xFF) | (SWAPWORD(*(pTmpDa
 733              		.loc 1 418 13 is_stmt 1 view .LVU224
 734              		.loc 1 418 43 is_stmt 0 view .LVU225
 735 0040 8188     		ldrh	r1, [r0, #4]
 736              		.loc 1 418 83 view .LVU226
 737 0042 B0F806C0 		ldrh	ip, [r0, #6]
 738              		.loc 1 418 80 view .LVU227
 739 0046 090A     		lsrs	r1, r1, #8
 740 0048 41EA0C21 		orr	r1, r1, ip, lsl #8
 741              		.loc 1 418 40 view .LVU228
 742 004c 1181     		strh	r1, [r2, #8]	@ movhi
 419:Lib/ssc_app/src/el9800appl.c ****             ((UINT16 *)&sDOOutputs)[5] = (SWAPWORD(*(pTmpData+3)) >> 8 & 0xFF) | (SWAPWORD(*(pTmpDa
 743              		.loc 1 419 13 is_stmt 1 view .LVU229
 744              		.loc 1 419 43 is_stmt 0 view .LVU230
 745 004e C188     		ldrh	r1, [r0, #6]
 746              		.loc 1 419 83 view .LVU231
 747 0050 B0F808C0 		ldrh	ip, [r0, #8]
 748              		.loc 1 419 80 view .LVU232
 749 0054 090A     		lsrs	r1, r1, #8
 750 0056 41EA0C21 		orr	r1, r1, ip, lsl #8
 751              		.loc 1 419 40 view .LVU233
 752 005a 5181     		strh	r1, [r2, #10]	@ movhi
 420:Lib/ssc_app/src/el9800appl.c ****             ((UINT16 *)&sDOOutputs)[6] = (SWAPWORD(*(pTmpData+4)) >> 8 & 0xFF) | (SWAPWORD(*(pTmpDa
 753              		.loc 1 420 13 is_stmt 1 view .LVU234
 754              		.loc 1 420 43 is_stmt 0 view .LVU235
 755 005c 0189     		ldrh	r1, [r0, #8]
 756              		.loc 1 420 83 view .LVU236
 757 005e B0F80AC0 		ldrh	ip, [r0, #10]
 758              		.loc 1 420 80 view .LVU237
 759 0062 090A     		lsrs	r1, r1, #8
 760 0064 41EA0C21 		orr	r1, r1, ip, lsl #8
 761              		.loc 1 420 40 view .LVU238
 762 0068 9181     		strh	r1, [r2, #12]	@ movhi
 421:Lib/ssc_app/src/el9800appl.c ****             ((UINT16 *)&sDOOutputs)[7] = (SWAPWORD(*(pTmpData+5)) >> 8 & 0xFF) | (SWAPWORD(*(pTmpDa
 763              		.loc 1 421 13 is_stmt 1 view .LVU239
 764              		.loc 1 421 43 is_stmt 0 view .LVU240
 765 006a 4189     		ldrh	r1, [r0, #10]
 766              		.loc 1 421 83 view .LVU241
 767 006c B0F80CC0 		ldrh	ip, [r0, #12]
 768              		.loc 1 421 80 view .LVU242
 769 0070 090A     		lsrs	r1, r1, #8
 770 0072 41EA0C21 		orr	r1, r1, ip, lsl #8
 771              		.loc 1 421 40 view .LVU243
 772 0076 D181     		strh	r1, [r2, #14]	@ movhi
 422:Lib/ssc_app/src/el9800appl.c ****             ((UINT16 *)&sDOOutputs)[8] = (SWAPWORD(*(pTmpData+6)) >> 8 & 0xFF) | (SWAPWORD(*(pTmpDa
 773              		.loc 1 422 13 is_stmt 1 view .LVU244
 774              		.loc 1 422 43 is_stmt 0 view .LVU245
 775 0078 8189     		ldrh	r1, [r0, #12]
 776              		.loc 1 422 83 view .LVU246
 777 007a B0F80EC0 		ldrh	ip, [r0, #14]
 778              		.loc 1 422 80 view .LVU247
 779 007e 090A     		lsrs	r1, r1, #8
ARM GAS  /tmp/cceYAhwt.s 			page 23


 780 0080 41EA0C21 		orr	r1, r1, ip, lsl #8
 781              		.loc 1 422 40 view .LVU248
 782 0084 1182     		strh	r1, [r2, #16]	@ movhi
 423:Lib/ssc_app/src/el9800appl.c ****             break;
 783              		.loc 1 423 13 is_stmt 1 view .LVU249
 784 0086 BDE7     		b	.L44
 785              	.L46:
 424:Lib/ssc_app/src/el9800appl.c ****         }
 425:Lib/ssc_app/src/el9800appl.c ****     }
 426:Lib/ssc_app/src/el9800appl.c **** }
 786              		.loc 1 426 1 is_stmt 0 view .LVU250
 787 0088 7047     		bx	lr
 788              	.L48:
 789 008a 00BF     		.align	2
 790              	.L47:
 791 008c 00000000 		.word	.LANCHOR1
 792 0090 00000000 		.word	.LANCHOR0
 793              		.cfi_endproc
 794              	.LFE132:
 796              		.section	.text.APPL_Application,"ax",%progbits
 797              		.align	1
 798              		.global	APPL_Application
 799              		.syntax unified
 800              		.thumb
 801              		.thumb_func
 803              	APPL_Application:
 804              	.LFB133:
 427:Lib/ssc_app/src/el9800appl.c **** 
 428:Lib/ssc_app/src/el9800appl.c **** /////////////////////////////////////////////////////////////////////////////////////////
 429:Lib/ssc_app/src/el9800appl.c **** /**
 430:Lib/ssc_app/src/el9800appl.c **** \brief    This function will called from the synchronisation ISR
 431:Lib/ssc_app/src/el9800appl.c ****             or from the mainloop if no synchronisation is supported
 432:Lib/ssc_app/src/el9800appl.c **** */
 433:Lib/ssc_app/src/el9800appl.c **** ///////////////////////////////////////////////////////////////////////////////////////
 434:Lib/ssc_app/src/el9800appl.c **** 
 435:Lib/ssc_app/src/el9800appl.c **** 
 436:Lib/ssc_app/src/el9800appl.c **** 
 437:Lib/ssc_app/src/el9800appl.c **** void APPL_Application(void)
 438:Lib/ssc_app/src/el9800appl.c **** {
 805              		.loc 1 438 1 is_stmt 1 view -0
 806              		.cfi_startproc
 807              		@ args = 0, pretend = 0, frame = 0
 808              		@ frame_needed = 0, uses_anonymous_args = 0
 809 0000 10B5     		push	{r4, lr}
 810              		.cfi_def_cfa_offset 8
 811              		.cfi_offset 4, -8
 812              		.cfi_offset 14, -4
 439:Lib/ssc_app/src/el9800appl.c ****     if (sDOOutputs.bLED1 != 0)
 813              		.loc 1 439 5 view .LVU252
 814              		.loc 1 439 26 is_stmt 0 view .LVU253
 815 0002 404B     		ldr	r3, .L57
 816 0004 9B78     		ldrb	r3, [r3, #2]	@ zero_extendqisi2
 817              		.loc 1 439 8 view .LVU254
 818 0006 13F0010F 		tst	r3, #1
 819 000a 68D0     		beq	.L50
 440:Lib/ssc_app/src/el9800appl.c ****     {
 441:Lib/ssc_app/src/el9800appl.c ****         GPIO_SetBits(GPIOB, GPIO_Pin_15);
ARM GAS  /tmp/cceYAhwt.s 			page 24


 820              		.loc 1 441 9 is_stmt 1 view .LVU255
 821 000c 4FF40041 		mov	r1, #32768
 822 0010 3D48     		ldr	r0, .L57+4
 823 0012 FFF7FEFF 		bl	GPIO_SetBits
 824              	.LVL57:
 825              	.L51:
 442:Lib/ssc_app/src/el9800appl.c ****     }
 443:Lib/ssc_app/src/el9800appl.c ****     else
 444:Lib/ssc_app/src/el9800appl.c ****     {
 445:Lib/ssc_app/src/el9800appl.c ****         GPIO_ResetBits(GPIOB, GPIO_Pin_15);
 446:Lib/ssc_app/src/el9800appl.c ****     }
 447:Lib/ssc_app/src/el9800appl.c **** 
 448:Lib/ssc_app/src/el9800appl.c ****     if (sDOOutputs.bLED2 != 0)
 826              		.loc 1 448 5 view .LVU256
 827              		.loc 1 448 26 is_stmt 0 view .LVU257
 828 0016 3B4B     		ldr	r3, .L57
 829 0018 9B78     		ldrb	r3, [r3, #2]	@ zero_extendqisi2
 830              		.loc 1 448 8 view .LVU258
 831 001a 13F0020F 		tst	r3, #2
 832 001e 64D0     		beq	.L52
 449:Lib/ssc_app/src/el9800appl.c ****     {
 450:Lib/ssc_app/src/el9800appl.c ****         GPIO_SetBits(GPIOB, GPIO_Pin_14);
 833              		.loc 1 450 9 is_stmt 1 view .LVU259
 834 0020 4FF48041 		mov	r1, #16384
 835 0024 3848     		ldr	r0, .L57+4
 836 0026 FFF7FEFF 		bl	GPIO_SetBits
 837              	.LVL58:
 838              	.L53:
 451:Lib/ssc_app/src/el9800appl.c ****     }
 452:Lib/ssc_app/src/el9800appl.c ****     else
 453:Lib/ssc_app/src/el9800appl.c ****     {
 454:Lib/ssc_app/src/el9800appl.c ****         GPIO_ResetBits(GPIOB, GPIO_Pin_14);
 455:Lib/ssc_app/src/el9800appl.c ****     }
 456:Lib/ssc_app/src/el9800appl.c **** 
 457:Lib/ssc_app/src/el9800appl.c ****      if (sDOOutputs.bLED3 != 0)
 839              		.loc 1 457 6 view .LVU260
 840              		.loc 1 457 27 is_stmt 0 view .LVU261
 841 002a 364B     		ldr	r3, .L57
 842 002c 9B78     		ldrb	r3, [r3, #2]	@ zero_extendqisi2
 843              		.loc 1 457 9 view .LVU262
 844 002e 13F0040F 		tst	r3, #4
 845 0032 60D0     		beq	.L54
 458:Lib/ssc_app/src/el9800appl.c ****     {
 459:Lib/ssc_app/src/el9800appl.c ****          GPIO_SetBits(GPIOB, GPIO_Pin_13);
 846              		.loc 1 459 10 is_stmt 1 view .LVU263
 847 0034 4FF40051 		mov	r1, #8192
 848 0038 3348     		ldr	r0, .L57+4
 849 003a FFF7FEFF 		bl	GPIO_SetBits
 850              	.LVL59:
 851              	.L55:
 460:Lib/ssc_app/src/el9800appl.c ****      }
 461:Lib/ssc_app/src/el9800appl.c ****      else
 462:Lib/ssc_app/src/el9800appl.c ****     {
 463:Lib/ssc_app/src/el9800appl.c ****          GPIO_ResetBits(GPIOB, GPIO_Pin_13);
 464:Lib/ssc_app/src/el9800appl.c ****      }
 465:Lib/ssc_app/src/el9800appl.c **** 
 466:Lib/ssc_app/src/el9800appl.c ****     Can1_TxMessage.StdId = sDOOutputs.can1_h0;
ARM GAS  /tmp/cceYAhwt.s 			page 25


 852              		.loc 1 466 5 view .LVU264
 853              		.loc 1 466 38 is_stmt 0 view .LVU265
 854 003e 314B     		ldr	r3, .L57
 855 0040 B3F90420 		ldrsh	r2, [r3, #4]
 856              		.loc 1 466 26 view .LVU266
 857 0044 3149     		ldr	r1, .L57+8
 858 0046 0A60     		str	r2, [r1]
 467:Lib/ssc_app/src/el9800appl.c ****     Can1_TxMessage.ExtId = 0;
 859              		.loc 1 467 5 is_stmt 1 view .LVU267
 860              		.loc 1 467 26 is_stmt 0 view .LVU268
 861 0048 0024     		movs	r4, #0
 862 004a 4C60     		str	r4, [r1, #4]
 468:Lib/ssc_app/src/el9800appl.c ****     Can1_TxMessage.IDE = sDOOutputs.can1_h1;
 863              		.loc 1 468 5 is_stmt 1 view .LVU269
 864              		.loc 1 468 36 is_stmt 0 view .LVU270
 865 004c 9A79     		ldrb	r2, [r3, #6]	@ zero_extendqisi2
 866              		.loc 1 468 24 view .LVU271
 867 004e 0A72     		strb	r2, [r1, #8]
 469:Lib/ssc_app/src/el9800appl.c ****     Can1_TxMessage.RTR = sDOOutputs.can1_h2;
 868              		.loc 1 469 5 is_stmt 1 view .LVU272
 869              		.loc 1 469 36 is_stmt 0 view .LVU273
 870 0050 DA79     		ldrb	r2, [r3, #7]	@ zero_extendqisi2
 871              		.loc 1 469 24 view .LVU274
 872 0052 4A72     		strb	r2, [r1, #9]
 470:Lib/ssc_app/src/el9800appl.c ****     Can1_TxMessage.DLC = sDOOutputs.can1_h3;
 873              		.loc 1 470 5 is_stmt 1 view .LVU275
 874              		.loc 1 470 36 is_stmt 0 view .LVU276
 875 0054 1A7A     		ldrb	r2, [r3, #8]	@ zero_extendqisi2
 876              		.loc 1 470 24 view .LVU277
 877 0056 8A72     		strb	r2, [r1, #10]
 471:Lib/ssc_app/src/el9800appl.c ****     
 472:Lib/ssc_app/src/el9800appl.c ****     Can1_TxMessage.Data[0] = sDOOutputs.can1_d0;
 878              		.loc 1 472 5 is_stmt 1 view .LVU278
 879              		.loc 1 472 40 is_stmt 0 view .LVU279
 880 0058 5A7A     		ldrb	r2, [r3, #9]	@ zero_extendqisi2
 881              		.loc 1 472 28 view .LVU280
 882 005a CA72     		strb	r2, [r1, #11]
 473:Lib/ssc_app/src/el9800appl.c ****     Can1_TxMessage.Data[1] = sDOOutputs.can1_d1;
 883              		.loc 1 473 5 is_stmt 1 view .LVU281
 884              		.loc 1 473 40 is_stmt 0 view .LVU282
 885 005c 9A7A     		ldrb	r2, [r3, #10]	@ zero_extendqisi2
 886              		.loc 1 473 28 view .LVU283
 887 005e 0A73     		strb	r2, [r1, #12]
 474:Lib/ssc_app/src/el9800appl.c ****     Can1_TxMessage.Data[2] = sDOOutputs.can1_d2;
 888              		.loc 1 474 5 is_stmt 1 view .LVU284
 889              		.loc 1 474 40 is_stmt 0 view .LVU285
 890 0060 DA7A     		ldrb	r2, [r3, #11]	@ zero_extendqisi2
 891              		.loc 1 474 28 view .LVU286
 892 0062 4A73     		strb	r2, [r1, #13]
 475:Lib/ssc_app/src/el9800appl.c ****     Can1_TxMessage.Data[3] = sDOOutputs.can1_d3;
 893              		.loc 1 475 5 is_stmt 1 view .LVU287
 894              		.loc 1 475 40 is_stmt 0 view .LVU288
 895 0064 1A7B     		ldrb	r2, [r3, #12]	@ zero_extendqisi2
 896              		.loc 1 475 28 view .LVU289
 897 0066 8A73     		strb	r2, [r1, #14]
 476:Lib/ssc_app/src/el9800appl.c ****     Can1_TxMessage.Data[4] = sDOOutputs.can1_d4;
 898              		.loc 1 476 5 is_stmt 1 view .LVU290
ARM GAS  /tmp/cceYAhwt.s 			page 26


 899              		.loc 1 476 40 is_stmt 0 view .LVU291
 900 0068 5A7B     		ldrb	r2, [r3, #13]	@ zero_extendqisi2
 901              		.loc 1 476 28 view .LVU292
 902 006a CA73     		strb	r2, [r1, #15]
 477:Lib/ssc_app/src/el9800appl.c ****     Can1_TxMessage.Data[5] = sDOOutputs.can1_d5;
 903              		.loc 1 477 5 is_stmt 1 view .LVU293
 904              		.loc 1 477 40 is_stmt 0 view .LVU294
 905 006c 9A7B     		ldrb	r2, [r3, #14]	@ zero_extendqisi2
 906              		.loc 1 477 28 view .LVU295
 907 006e 0A74     		strb	r2, [r1, #16]
 478:Lib/ssc_app/src/el9800appl.c ****     Can1_TxMessage.Data[6] = sDOOutputs.can1_d6;
 908              		.loc 1 478 5 is_stmt 1 view .LVU296
 909              		.loc 1 478 40 is_stmt 0 view .LVU297
 910 0070 DA7B     		ldrb	r2, [r3, #15]	@ zero_extendqisi2
 911              		.loc 1 478 28 view .LVU298
 912 0072 4A74     		strb	r2, [r1, #17]
 479:Lib/ssc_app/src/el9800appl.c ****     Can1_TxMessage.Data[7] = sDOOutputs.can1_d7;
 913              		.loc 1 479 5 is_stmt 1 view .LVU299
 914              		.loc 1 479 40 is_stmt 0 view .LVU300
 915 0074 1B7C     		ldrb	r3, [r3, #16]	@ zero_extendqisi2
 916              		.loc 1 479 28 view .LVU301
 917 0076 8B74     		strb	r3, [r1, #18]
 480:Lib/ssc_app/src/el9800appl.c **** 
 481:Lib/ssc_app/src/el9800appl.c ****     CAN_Transmit(CAN1, &Can1_TxMessage);
 918              		.loc 1 481 5 is_stmt 1 view .LVU302
 919 0078 2548     		ldr	r0, .L57+12
 920 007a FFF7FEFF 		bl	CAN_Transmit
 921              	.LVL60:
 482:Lib/ssc_app/src/el9800appl.c ****     
 483:Lib/ssc_app/src/el9800appl.c ****     sDIInputs.bSwitch1 = 0;
 922              		.loc 1 483 5 view .LVU303
 923              		.loc 1 483 24 is_stmt 0 view .LVU304
 924 007e 254B     		ldr	r3, .L57+16
 925 0080 9A78     		ldrb	r2, [r3, #2]	@ zero_extendqisi2
 926 0082 64F30002 		bfi	r2, r4, #0, #1
 927 0086 9A70     		strb	r2, [r3, #2]
 484:Lib/ssc_app/src/el9800appl.c ****     sDIInputs.bSwitch2 = 0;
 928              		.loc 1 484 5 is_stmt 1 view .LVU305
 929              		.loc 1 484 24 is_stmt 0 view .LVU306
 930 0088 D2B2     		uxtb	r2, r2
 931 008a 64F34102 		bfi	r2, r4, #1, #1
 932 008e 9A70     		strb	r2, [r3, #2]
 485:Lib/ssc_app/src/el9800appl.c ****     sDIInputs.bSwitch3 = 0;
 933              		.loc 1 485 5 is_stmt 1 view .LVU307
 934              		.loc 1 485 24 is_stmt 0 view .LVU308
 935 0090 D2B2     		uxtb	r2, r2
 936 0092 64F38202 		bfi	r2, r4, #2, #1
 937 0096 9A70     		strb	r2, [r3, #2]
 486:Lib/ssc_app/src/el9800appl.c ****     sDIInputs.bSwitch4 = 0;
 938              		.loc 1 486 5 is_stmt 1 view .LVU309
 939              		.loc 1 486 24 is_stmt 0 view .LVU310
 940 0098 D2B2     		uxtb	r2, r2
 941 009a 64F3C302 		bfi	r2, r4, #3, #1
 942 009e 9A70     		strb	r2, [r3, #2]
 487:Lib/ssc_app/src/el9800appl.c ****     sDIInputs.bSwitch5 = 0;
 943              		.loc 1 487 5 is_stmt 1 view .LVU311
 944              		.loc 1 487 24 is_stmt 0 view .LVU312
ARM GAS  /tmp/cceYAhwt.s 			page 27


 945 00a0 D2B2     		uxtb	r2, r2
 946 00a2 64F30412 		bfi	r2, r4, #4, #1
 947 00a6 9A70     		strb	r2, [r3, #2]
 488:Lib/ssc_app/src/el9800appl.c ****     sDIInputs.bSwitch6 = 0;
 948              		.loc 1 488 5 is_stmt 1 view .LVU313
 949              		.loc 1 488 24 is_stmt 0 view .LVU314
 950 00a8 D2B2     		uxtb	r2, r2
 951 00aa 64F34512 		bfi	r2, r4, #5, #1
 952 00ae 9A70     		strb	r2, [r3, #2]
 489:Lib/ssc_app/src/el9800appl.c ****     sDIInputs.bSwitch7 = 0;
 953              		.loc 1 489 5 is_stmt 1 view .LVU315
 954              		.loc 1 489 24 is_stmt 0 view .LVU316
 955 00b0 D2B2     		uxtb	r2, r2
 956 00b2 64F38612 		bfi	r2, r4, #6, #1
 957 00b6 9A70     		strb	r2, [r3, #2]
 490:Lib/ssc_app/src/el9800appl.c ****     sDIInputs.bSwitch8 = 0;
 958              		.loc 1 490 5 is_stmt 1 view .LVU317
 959              		.loc 1 490 24 is_stmt 0 view .LVU318
 960 00b8 D2B2     		uxtb	r2, r2
 961 00ba 64F3C712 		bfi	r2, r4, #7, #1
 962 00be 9A70     		strb	r2, [r3, #2]
 491:Lib/ssc_app/src/el9800appl.c **** 
 492:Lib/ssc_app/src/el9800appl.c ****     /* start the conversion of the A/D converter */
 493:Lib/ssc_app/src/el9800appl.c ****     //		while(!(ADC_GetFlagStatus(ADC1, ADC_FLAG_EOC)==SET));
 494:Lib/ssc_app/src/el9800appl.c **** 
 495:Lib/ssc_app/src/el9800appl.c ****     sAIInputs.i16Analoginput = 0;
 963              		.loc 1 495 5 is_stmt 1 view .LVU319
 964              		.loc 1 495 30 is_stmt 0 view .LVU320
 965 00c0 154B     		ldr	r3, .L57+20
 966 00c2 9C80     		strh	r4, [r3, #4]	@ movhi
 496:Lib/ssc_app/src/el9800appl.c **** 
 497:Lib/ssc_app/src/el9800appl.c ****     /* we toggle the TxPDO Toggle after updating the data of the corresponding TxPDO */
 498:Lib/ssc_app/src/el9800appl.c ****     sAIInputs.bTxPDOToggle ^= 1;
 967              		.loc 1 498 5 is_stmt 1 view .LVU321
 968              		.loc 1 498 28 is_stmt 0 view .LVU322
 969 00c4 DA78     		ldrb	r2, [r3, #3]	@ zero_extendqisi2
 970 00c6 C2F3C011 		ubfx	r1, r2, #7, #1
 971 00ca 81F00101 		eor	r1, r1, #1
 972 00ce 61F3C712 		bfi	r2, r1, #7, #1
 973 00d2 DA70     		strb	r2, [r3, #3]
 499:Lib/ssc_app/src/el9800appl.c **** 
 500:Lib/ssc_app/src/el9800appl.c ****     /* we simulate a problem of the analog input, if the Switch4 is on in this example,
 501:Lib/ssc_app/src/el9800appl.c ****        in this case the TxPDO State has to set to indicate the problem to the master */
 502:Lib/ssc_app/src/el9800appl.c ****     if (sDIInputs.bSwitch4)
 974              		.loc 1 502 5 is_stmt 1 view .LVU323
 503:Lib/ssc_app/src/el9800appl.c ****         sAIInputs.bTxPDOState = 1;
 504:Lib/ssc_app/src/el9800appl.c ****     else
 505:Lib/ssc_app/src/el9800appl.c ****         sAIInputs.bTxPDOState = 0;
 975              		.loc 1 505 9 view .LVU324
 976              		.loc 1 505 31 is_stmt 0 view .LVU325
 977 00d4 D2B2     		uxtb	r2, r2
 978 00d6 64F38612 		bfi	r2, r4, #6, #1
 979 00da DA70     		strb	r2, [r3, #3]
 506:Lib/ssc_app/src/el9800appl.c **** }
 980              		.loc 1 506 1 view .LVU326
 981 00dc 10BD     		pop	{r4, pc}
 982              	.L50:
ARM GAS  /tmp/cceYAhwt.s 			page 28


 445:Lib/ssc_app/src/el9800appl.c ****     }
 983              		.loc 1 445 9 is_stmt 1 view .LVU327
 984 00de 4FF40041 		mov	r1, #32768
 985 00e2 0948     		ldr	r0, .L57+4
 986 00e4 FFF7FEFF 		bl	GPIO_ResetBits
 987              	.LVL61:
 988 00e8 95E7     		b	.L51
 989              	.L52:
 454:Lib/ssc_app/src/el9800appl.c ****     }
 990              		.loc 1 454 9 view .LVU328
 991 00ea 4FF48041 		mov	r1, #16384
 992 00ee 0648     		ldr	r0, .L57+4
 993 00f0 FFF7FEFF 		bl	GPIO_ResetBits
 994              	.LVL62:
 995 00f4 99E7     		b	.L53
 996              	.L54:
 463:Lib/ssc_app/src/el9800appl.c ****      }
 997              		.loc 1 463 10 view .LVU329
 998 00f6 4FF40051 		mov	r1, #8192
 999 00fa 0348     		ldr	r0, .L57+4
 1000 00fc FFF7FEFF 		bl	GPIO_ResetBits
 1001              	.LVL63:
 1002 0100 9DE7     		b	.L55
 1003              	.L58:
 1004 0102 00BF     		.align	2
 1005              	.L57:
 1006 0104 00000000 		.word	.LANCHOR0
 1007 0108 00040240 		.word	1073873920
 1008 010c 00000000 		.word	Can1_TxMessage
 1009 0110 00640040 		.word	1073767424
 1010 0114 00000000 		.word	.LANCHOR3
 1011 0118 00000000 		.word	.LANCHOR4
 1012              		.cfi_endproc
 1013              	.LFE133:
 1015              		.section	.text.ReadObject0x1802,"ax",%progbits
 1016              		.align	1
 1017              		.global	ReadObject0x1802
 1018              		.syntax unified
 1019              		.thumb
 1020              		.thumb_func
 1022              	ReadObject0x1802:
 1023              	.LVL64:
 1024              	.LFB134:
 507:Lib/ssc_app/src/el9800appl.c **** 
 508:Lib/ssc_app/src/el9800appl.c **** /////////////////////////////////////////////////////////////////////////////////////////
 509:Lib/ssc_app/src/el9800appl.c **** /**
 510:Lib/ssc_app/src/el9800appl.c ****  \param     index               index of the requested object.
 511:Lib/ssc_app/src/el9800appl.c ****  \param     subindex            subindex of the requested object.
 512:Lib/ssc_app/src/el9800appl.c ****  \param     objSize             size of the requested object data, calculated with OBJ_GetObjectLen
 513:Lib/ssc_app/src/el9800appl.c ****  \param     pData               Pointer to the buffer where the data can be copied to
 514:Lib/ssc_app/src/el9800appl.c ****  \param     bCompleteAccess     Indicates if a complete read of all subindices of the
 515:Lib/ssc_app/src/el9800appl.c ****                                 object shall be done or not
 516:Lib/ssc_app/src/el9800appl.c **** 
 517:Lib/ssc_app/src/el9800appl.c ****  \return    ABORTIDX_XXX
 518:Lib/ssc_app/src/el9800appl.c **** 
 519:Lib/ssc_app/src/el9800appl.c ****  \brief     Handles SDO read requests to TxPDO Parameter
 520:Lib/ssc_app/src/el9800appl.c **** */
ARM GAS  /tmp/cceYAhwt.s 			page 29


 521:Lib/ssc_app/src/el9800appl.c **** ///////////////////////////////////////////////////////////////////////////////////////
 522:Lib/ssc_app/src/el9800appl.c **** UINT8 ReadObject0x1802(UINT16 index, UINT8 subindex, UINT32 dataSize, UINT16 MBXMEM *pData, UINT8 b
 523:Lib/ssc_app/src/el9800appl.c **** {
 1025              		.loc 1 523 1 view -0
 1026              		.cfi_startproc
 1027              		@ args = 4, pretend = 0, frame = 0
 1028              		@ frame_needed = 0, uses_anonymous_args = 0
 1029              		.loc 1 523 1 is_stmt 0 view .LVU331
 1030 0000 10B5     		push	{r4, lr}
 1031              		.cfi_def_cfa_offset 8
 1032              		.cfi_offset 4, -8
 1033              		.cfi_offset 14, -4
 1034 0002 9DF80840 		ldrb	r4, [sp, #8]	@ zero_extendqisi2
 524:Lib/ssc_app/src/el9800appl.c **** 
 525:Lib/ssc_app/src/el9800appl.c ****     if (bCompleteAccess)
 1035              		.loc 1 525 5 is_stmt 1 view .LVU332
 1036              		.loc 1 525 8 is_stmt 0 view .LVU333
 1037 0006 34BB     		cbnz	r4, .L64
 526:Lib/ssc_app/src/el9800appl.c ****         return ABORTIDX_UNSUPPORTED_ACCESS;
 527:Lib/ssc_app/src/el9800appl.c **** 
 528:Lib/ssc_app/src/el9800appl.c ****     if (subindex == 0)
 1038              		.loc 1 528 5 is_stmt 1 view .LVU334
 1039              		.loc 1 528 8 is_stmt 0 view .LVU335
 1040 0008 21B9     		cbnz	r1, .L61
 529:Lib/ssc_app/src/el9800appl.c ****     {
 530:Lib/ssc_app/src/el9800appl.c ****         *pData = TxPDO1802Subindex0;
 1041              		.loc 1 530 9 is_stmt 1 view .LVU336
 1042              		.loc 1 530 16 is_stmt 0 view .LVU337
 1043 000a 154A     		ldr	r2, .L71
 1044              	.LVL65:
 1045              		.loc 1 530 16 view .LVU338
 1046 000c 1288     		ldrh	r2, [r2]
 1047 000e 1A80     		strh	r2, [r3]	@ movhi
 531:Lib/ssc_app/src/el9800appl.c ****     }
 532:Lib/ssc_app/src/el9800appl.c ****     else if (subindex == 6)
 533:Lib/ssc_app/src/el9800appl.c ****     {
 534:Lib/ssc_app/src/el9800appl.c ****         /*clear destination buffer (no excluded TxPDO set)*/
 535:Lib/ssc_app/src/el9800appl.c ****         if (dataSize > 0)
 536:Lib/ssc_app/src/el9800appl.c ****             MBXMEMSET(pData, 0x00, dataSize);
 537:Lib/ssc_app/src/el9800appl.c ****     }
 538:Lib/ssc_app/src/el9800appl.c ****     else if (subindex == 7)
 539:Lib/ssc_app/src/el9800appl.c ****     {
 540:Lib/ssc_app/src/el9800appl.c ****         /*min size is one Byte*/
 541:Lib/ssc_app/src/el9800appl.c ****         UINT8 *pu8Data = (UINT8 *)pData;
 542:Lib/ssc_app/src/el9800appl.c **** 
 543:Lib/ssc_app/src/el9800appl.c ****         // Reset Buffer
 544:Lib/ssc_app/src/el9800appl.c ****         *pu8Data = 0;
 545:Lib/ssc_app/src/el9800appl.c **** 
 546:Lib/ssc_app/src/el9800appl.c ****         *pu8Data = sAIInputs.bTxPDOState;
 547:Lib/ssc_app/src/el9800appl.c ****     }
 548:Lib/ssc_app/src/el9800appl.c ****     else if (subindex == 9)
 549:Lib/ssc_app/src/el9800appl.c ****     {
 550:Lib/ssc_app/src/el9800appl.c ****         /*min size is one Byte*/
 551:Lib/ssc_app/src/el9800appl.c ****         UINT8 *pu8Data = (UINT8 *)pData;
 552:Lib/ssc_app/src/el9800appl.c **** 
 553:Lib/ssc_app/src/el9800appl.c ****         // Reset Buffer
 554:Lib/ssc_app/src/el9800appl.c ****         *pu8Data = 0;
ARM GAS  /tmp/cceYAhwt.s 			page 30


 555:Lib/ssc_app/src/el9800appl.c **** 
 556:Lib/ssc_app/src/el9800appl.c ****         *pu8Data = sAIInputs.bTxPDOToggle;
 557:Lib/ssc_app/src/el9800appl.c ****     }
 558:Lib/ssc_app/src/el9800appl.c ****     else
 559:Lib/ssc_app/src/el9800appl.c ****         return ABORTIDX_SUBINDEX_NOT_EXISTING;
 560:Lib/ssc_app/src/el9800appl.c **** 
 561:Lib/ssc_app/src/el9800appl.c ****     return 0;
 1048              		.loc 1 561 12 view .LVU339
 1049 0010 0846     		mov	r0, r1
 1050              	.LVL66:
 1051              	.L60:
 562:Lib/ssc_app/src/el9800appl.c **** }
 1052              		.loc 1 562 1 view .LVU340
 1053 0012 10BD     		pop	{r4, pc}
 1054              	.LVL67:
 1055              	.L61:
 532:Lib/ssc_app/src/el9800appl.c ****     {
 1056              		.loc 1 532 10 is_stmt 1 view .LVU341
 532:Lib/ssc_app/src/el9800appl.c ****     {
 1057              		.loc 1 532 13 is_stmt 0 view .LVU342
 1058 0014 0629     		cmp	r1, #6
 1059 0016 0CD0     		beq	.L68
 538:Lib/ssc_app/src/el9800appl.c ****     {
 1060              		.loc 1 538 10 is_stmt 1 view .LVU343
 538:Lib/ssc_app/src/el9800appl.c ****     {
 1061              		.loc 1 538 13 is_stmt 0 view .LVU344
 1062 0018 0729     		cmp	r1, #7
 1063 001a 13D0     		beq	.L69
 548:Lib/ssc_app/src/el9800appl.c ****     {
 1064              		.loc 1 548 10 is_stmt 1 view .LVU345
 548:Lib/ssc_app/src/el9800appl.c ****     {
 1065              		.loc 1 548 13 is_stmt 0 view .LVU346
 1066 001c 0929     		cmp	r1, #9
 1067 001e 1CD1     		bne	.L66
 1068              	.LBB2:
 551:Lib/ssc_app/src/el9800appl.c **** 
 1069              		.loc 1 551 9 is_stmt 1 view .LVU347
 1070              	.LVL68:
 554:Lib/ssc_app/src/el9800appl.c **** 
 1071              		.loc 1 554 9 view .LVU348
 554:Lib/ssc_app/src/el9800appl.c **** 
 1072              		.loc 1 554 18 is_stmt 0 view .LVU349
 1073 0020 0022     		movs	r2, #0
 1074              	.LVL69:
 554:Lib/ssc_app/src/el9800appl.c **** 
 1075              		.loc 1 554 18 view .LVU350
 1076 0022 1A70     		strb	r2, [r3]
 556:Lib/ssc_app/src/el9800appl.c ****     }
 1077              		.loc 1 556 9 is_stmt 1 view .LVU351
 556:Lib/ssc_app/src/el9800appl.c ****     }
 1078              		.loc 1 556 29 is_stmt 0 view .LVU352
 1079 0024 0F4A     		ldr	r2, .L71+4
 1080 0026 D278     		ldrb	r2, [r2, #3]	@ zero_extendqisi2
 1081 0028 C2F3C012 		ubfx	r2, r2, #7, #1
 556:Lib/ssc_app/src/el9800appl.c ****     }
 1082              		.loc 1 556 18 view .LVU353
 1083 002c 1A70     		strb	r2, [r3]
ARM GAS  /tmp/cceYAhwt.s 			page 31


 1084              	.LBE2:
 561:Lib/ssc_app/src/el9800appl.c **** }
 1085              		.loc 1 561 12 view .LVU354
 1086 002e 2046     		mov	r0, r4
 1087              	.LVL70:
 561:Lib/ssc_app/src/el9800appl.c **** }
 1088              		.loc 1 561 12 view .LVU355
 1089 0030 EFE7     		b	.L60
 1090              	.LVL71:
 1091              	.L68:
 535:Lib/ssc_app/src/el9800appl.c ****             MBXMEMSET(pData, 0x00, dataSize);
 1092              		.loc 1 535 9 is_stmt 1 view .LVU356
 535:Lib/ssc_app/src/el9800appl.c ****             MBXMEMSET(pData, 0x00, dataSize);
 1093              		.loc 1 535 12 is_stmt 0 view .LVU357
 1094 0032 0AB9     		cbnz	r2, .L70
 561:Lib/ssc_app/src/el9800appl.c **** }
 1095              		.loc 1 561 12 view .LVU358
 1096 0034 2046     		mov	r0, r4
 1097              	.LVL72:
 561:Lib/ssc_app/src/el9800appl.c **** }
 1098              		.loc 1 561 12 view .LVU359
 1099 0036 ECE7     		b	.L60
 1100              	.LVL73:
 1101              	.L70:
 536:Lib/ssc_app/src/el9800appl.c ****     }
 1102              		.loc 1 536 13 is_stmt 1 view .LVU360
 1103 0038 0021     		movs	r1, #0
 1104              	.LVL74:
 536:Lib/ssc_app/src/el9800appl.c ****     }
 1105              		.loc 1 536 13 is_stmt 0 view .LVU361
 1106 003a 1846     		mov	r0, r3
 1107              	.LVL75:
 536:Lib/ssc_app/src/el9800appl.c ****     }
 1108              		.loc 1 536 13 view .LVU362
 1109 003c FFF7FEFF 		bl	memset
 1110              	.LVL76:
 561:Lib/ssc_app/src/el9800appl.c **** }
 1111              		.loc 1 561 12 view .LVU363
 1112 0040 2046     		mov	r0, r4
 1113 0042 E6E7     		b	.L60
 1114              	.LVL77:
 1115              	.L69:
 1116              	.LBB3:
 541:Lib/ssc_app/src/el9800appl.c **** 
 1117              		.loc 1 541 9 is_stmt 1 view .LVU364
 544:Lib/ssc_app/src/el9800appl.c **** 
 1118              		.loc 1 544 9 view .LVU365
 544:Lib/ssc_app/src/el9800appl.c **** 
 1119              		.loc 1 544 18 is_stmt 0 view .LVU366
 1120 0044 0022     		movs	r2, #0
 1121              	.LVL78:
 544:Lib/ssc_app/src/el9800appl.c **** 
 1122              		.loc 1 544 18 view .LVU367
 1123 0046 1A70     		strb	r2, [r3]
 546:Lib/ssc_app/src/el9800appl.c ****     }
 1124              		.loc 1 546 9 is_stmt 1 view .LVU368
 546:Lib/ssc_app/src/el9800appl.c ****     }
ARM GAS  /tmp/cceYAhwt.s 			page 32


 1125              		.loc 1 546 29 is_stmt 0 view .LVU369
 1126 0048 064A     		ldr	r2, .L71+4
 1127 004a D278     		ldrb	r2, [r2, #3]	@ zero_extendqisi2
 1128 004c C2F38012 		ubfx	r2, r2, #6, #1
 546:Lib/ssc_app/src/el9800appl.c ****     }
 1129              		.loc 1 546 18 view .LVU370
 1130 0050 1A70     		strb	r2, [r3]
 1131              	.LBE3:
 561:Lib/ssc_app/src/el9800appl.c **** }
 1132              		.loc 1 561 12 view .LVU371
 1133 0052 2046     		mov	r0, r4
 1134              	.LVL79:
 561:Lib/ssc_app/src/el9800appl.c **** }
 1135              		.loc 1 561 12 view .LVU372
 1136 0054 DDE7     		b	.L60
 1137              	.LVL80:
 1138              	.L64:
 526:Lib/ssc_app/src/el9800appl.c **** 
 1139              		.loc 1 526 16 view .LVU373
 1140 0056 0520     		movs	r0, #5
 1141              	.LVL81:
 526:Lib/ssc_app/src/el9800appl.c **** 
 1142              		.loc 1 526 16 view .LVU374
 1143 0058 DBE7     		b	.L60
 1144              	.LVL82:
 1145              	.L66:
 559:Lib/ssc_app/src/el9800appl.c **** 
 1146              		.loc 1 559 16 view .LVU375
 1147 005a 1120     		movs	r0, #17
 1148              	.LVL83:
 559:Lib/ssc_app/src/el9800appl.c **** 
 1149              		.loc 1 559 16 view .LVU376
 1150 005c D9E7     		b	.L60
 1151              	.L72:
 1152 005e 00BF     		.align	2
 1153              	.L71:
 1154 0060 00000000 		.word	.LANCHOR5
 1155 0064 00000000 		.word	.LANCHOR4
 1156              		.cfi_endproc
 1157              	.LFE134:
 1159              		.section	.text.main,"ax",%progbits
 1160              		.align	1
 1161              		.global	main
 1162              		.syntax unified
 1163              		.thumb
 1164              		.thumb_func
 1166              	main:
 1167              	.LFB135:
 563:Lib/ssc_app/src/el9800appl.c **** 
 564:Lib/ssc_app/src/el9800appl.c **** #if EXPLICIT_DEVICE_ID
 565:Lib/ssc_app/src/el9800appl.c **** /////////////////////////////////////////////////////////////////////////////////////////
 566:Lib/ssc_app/src/el9800appl.c **** /**
 567:Lib/ssc_app/src/el9800appl.c ****  \return    The Explicit Device ID of the EtherCAT slave
 568:Lib/ssc_app/src/el9800appl.c **** 
 569:Lib/ssc_app/src/el9800appl.c ****  \brief     Calculate the Explicit Device ID
 570:Lib/ssc_app/src/el9800appl.c **** */
 571:Lib/ssc_app/src/el9800appl.c **** ///////////////////////////////////////////////////////////////////////////////////////
ARM GAS  /tmp/cceYAhwt.s 			page 33


 572:Lib/ssc_app/src/el9800appl.c **** UINT16 APPL_GetDeviceID()
 573:Lib/ssc_app/src/el9800appl.c **** {
 574:Lib/ssc_app/src/el9800appl.c ****     UINT16 Value = (UINT16)(SWITCH_8 << 7) | (SWITCH_7 << 6) | (SWITCH_6 << 5) | (SWITCH_5 << 4) | 
 575:Lib/ssc_app/src/el9800appl.c ****     return Value;
 576:Lib/ssc_app/src/el9800appl.c **** }
 577:Lib/ssc_app/src/el9800appl.c **** #endif
 578:Lib/ssc_app/src/el9800appl.c **** 
 579:Lib/ssc_app/src/el9800appl.c **** #if USE_DEFAULT_MAIN
 580:Lib/ssc_app/src/el9800appl.c **** /////////////////////////////////////////////////////////////////////////////////////////
 581:Lib/ssc_app/src/el9800appl.c **** /**
 582:Lib/ssc_app/src/el9800appl.c **** 
 583:Lib/ssc_app/src/el9800appl.c ****  \brief    This is the main function
 584:Lib/ssc_app/src/el9800appl.c **** 
 585:Lib/ssc_app/src/el9800appl.c **** */
 586:Lib/ssc_app/src/el9800appl.c **** ///////////////////////////////////////////////////////////////////////////////////////
 587:Lib/ssc_app/src/el9800appl.c **** uint32_t times = 0x1000000;
 588:Lib/ssc_app/src/el9800appl.c **** #if _STM32_IO8
 589:Lib/ssc_app/src/el9800appl.c **** int main(void)
 590:Lib/ssc_app/src/el9800appl.c **** #else
 591:Lib/ssc_app/src/el9800appl.c **** void main(void)
 592:Lib/ssc_app/src/el9800appl.c **** #endif
 593:Lib/ssc_app/src/el9800appl.c **** {
 1168              		.loc 1 593 1 is_stmt 1 view -0
 1169              		.cfi_startproc
 1170              		@ args = 0, pretend = 0, frame = 0
 1171              		@ frame_needed = 0, uses_anonymous_args = 0
 1172 0000 08B5     		push	{r3, lr}
 1173              		.cfi_def_cfa_offset 8
 1174              		.cfi_offset 3, -8
 1175              		.cfi_offset 14, -4
 594:Lib/ssc_app/src/el9800appl.c ****     /* initialize the Hardware and the EtherCAT Slave Controller */
 595:Lib/ssc_app/src/el9800appl.c ****     HW_Init();
 1176              		.loc 1 595 5 view .LVU378
 1177 0002 FFF7FEFF 		bl	HW_Init
 1178              	.LVL84:
 596:Lib/ssc_app/src/el9800appl.c **** 
 597:Lib/ssc_app/src/el9800appl.c ****     MainInit();
 1179              		.loc 1 597 5 view .LVU379
 1180 0006 FFF7FEFF 		bl	MainInit
 1181              	.LVL85:
 598:Lib/ssc_app/src/el9800appl.c **** 
 599:Lib/ssc_app/src/el9800appl.c ****     bRunApplication = TRUE;
 1182              		.loc 1 599 5 view .LVU380
 1183              		.loc 1 599 21 is_stmt 0 view .LVU381
 1184 000a 064B     		ldr	r3, .L76
 1185 000c 0122     		movs	r2, #1
 1186 000e 1A70     		strb	r2, [r3]
 1187              	.L74:
 600:Lib/ssc_app/src/el9800appl.c ****     do
 1188              		.loc 1 600 5 is_stmt 1 discriminator 1 view .LVU382
 601:Lib/ssc_app/src/el9800appl.c ****     {
 602:Lib/ssc_app/src/el9800appl.c ****         MainLoop();
 1189              		.loc 1 602 9 discriminator 1 view .LVU383
 1190 0010 FFF7FEFF 		bl	MainLoop
 1191              	.LVL86:
 603:Lib/ssc_app/src/el9800appl.c **** 
 604:Lib/ssc_app/src/el9800appl.c ****     } while (bRunApplication == TRUE);
ARM GAS  /tmp/cceYAhwt.s 			page 34


 1192              		.loc 1 604 13 discriminator 1 view .LVU384
 1193              		.loc 1 604 30 is_stmt 0 discriminator 1 view .LVU385
 1194 0014 034B     		ldr	r3, .L76
 1195 0016 1B78     		ldrb	r3, [r3]	@ zero_extendqisi2
 1196              		.loc 1 604 5 discriminator 1 view .LVU386
 1197 0018 012B     		cmp	r3, #1
 1198 001a F9D0     		beq	.L74
 605:Lib/ssc_app/src/el9800appl.c **** 
 606:Lib/ssc_app/src/el9800appl.c ****     HW_Release();
 1199              		.loc 1 606 5 is_stmt 1 view .LVU387
 1200 001c FFF7FEFF 		bl	HW_Release
 1201              	.LVL87:
 607:Lib/ssc_app/src/el9800appl.c **** #if _STM32_IO8
 608:Lib/ssc_app/src/el9800appl.c ****     return 0;
 1202              		.loc 1 608 5 view .LVU388
 609:Lib/ssc_app/src/el9800appl.c **** #endif
 610:Lib/ssc_app/src/el9800appl.c **** }
 1203              		.loc 1 610 1 is_stmt 0 view .LVU389
 1204 0020 0020     		movs	r0, #0
 1205 0022 08BD     		pop	{r3, pc}
 1206              	.L77:
 1207              		.align	2
 1208              	.L76:
 1209 0024 00000000 		.word	bRunApplication
 1210              		.cfi_endproc
 1211              	.LFE135:
 1213              		.global	times
 1214              		.global	sModulelist
 1215              		.global	sModulardeviceprofile
 1216              		.global	sAISettings
 1217              		.global	sDOOutputs
 1218              		.global	sAIInputs
 1219              		.global	sDIInputs
 1220              		.global	sTxPDOassign
 1221              		.global	sRxPDOassign
 1222              		.global	sAITxPDOMap
 1223              		.global	sDITxPDOMap
 1224              		.global	TxPDO1802Subindex0
 1225              		.global	sDORxPDOMap
 1226              		.section	.data.TxPDO1802Subindex0,"aw"
 1227              		.align	1
 1228              		.set	.LANCHOR5,. + 0
 1231              	TxPDO1802Subindex0:
 1232 0000 0900     		.short	9
 1233              		.section	.data.sAIInputs,"aw"
 1234              		.align	2
 1235              		.set	.LANCHOR4,. + 0
 1238              	sAIInputs:
 1239 0000 1100     		.short	17
 1240 0002 00       		.byte	0
 1241 0003 00       		.byte	0
 1242 0004 FF7F     		.short	32767
 1243              		.section	.data.sAISettings,"aw"
 1244              		.align	2
 1247              	sAISettings:
 1248 0000 1400     		.short	20
 1249 0002 00       		.byte	0
ARM GAS  /tmp/cceYAhwt.s 			page 35


 1250 0003 00       		.byte	0
 1251 0004 0000     		.short	0
 1252 0006 0000     		.space	2
 1253 0008 00000000 		.word	0
 1254 000c 0000     		.short	0
 1255 000e 0000     		.short	0
 1256              		.section	.data.sAITxPDOMap,"aw"
 1257              		.align	2
 1260              	sAITxPDOMap:
 1261 0000 0800     		.short	8
 1262 0002 0000     		.space	2
 1263 0004 01012060 		.word	1612710145
 1264 0008 01022060 		.word	1612710401
 1265 000c 02032060 		.word	1612710658
 1266 0010 02052060 		.word	1612711170
 1267 0014 08000000 		.word	8
 1268 0018 01070218 		.word	402786049
 1269 001c 01090218 		.word	402786561
 1270 0020 10112060 		.word	1612714256
 1271              		.section	.data.sDIInputs,"aw"
 1272              		.align	2
 1273              		.set	.LANCHOR3,. + 0
 1276              	sDIInputs:
 1277 0000 0800     		.short	8
 1278 0002 00       		.byte	0
 1279 0003 00       		.byte	0
 1280              		.section	.data.sDITxPDOMap,"aw"
 1281              		.align	2
 1284              	sDITxPDOMap:
 1285 0000 0900     		.short	9
 1286 0002 0000     		.space	2
 1287 0004 01010060 		.word	1610612993
 1288 0008 01020060 		.word	1610613249
 1289 000c 01030060 		.word	1610613505
 1290 0010 01040060 		.word	1610613761
 1291 0014 01050060 		.word	1610614017
 1292 0018 01060060 		.word	1610614273
 1293 001c 01070060 		.word	1610614529
 1294 0020 01080060 		.word	1610614785
 1295 0024 08000000 		.word	8
 1296              		.section	.data.sDOOutputs,"aw"
 1297              		.align	2
 1298              		.set	.LANCHOR0,. + 0
 1301              	sDOOutputs:
 1302 0000 1400     		.short	20
 1303 0002 00       		.byte	0
 1304 0003 00       		.space	1
 1305 0004 0000     		.short	0
 1306 0006 00       		.byte	0
 1307 0007 00       		.byte	0
 1308 0008 00       		.byte	0
 1309 0009 00       		.byte	0
 1310 000a 00       		.byte	0
 1311 000b 00       		.byte	0
 1312 000c 00       		.byte	0
 1313 000d 00       		.byte	0
 1314 000e 00       		.byte	0
ARM GAS  /tmp/cceYAhwt.s 			page 36


 1315 000f 00       		.byte	0
 1316 0010 00       		.byte	0
 1317 0011 00       		.space	1
 1318              		.section	.data.sDORxPDOMap,"aw"
 1319              		.align	2
 1322              	sDORxPDOMap:
 1323 0000 1400     		.short	20
 1324 0002 0000     		.space	2
 1325 0004 01011070 		.word	1880097025
 1326 0008 01021070 		.word	1880097281
 1327 000c 01031070 		.word	1880097537
 1328 0010 01041070 		.word	1880097793
 1329 0014 01051070 		.word	1880098049
 1330 0018 01061070 		.word	1880098305
 1331 001c 01071070 		.word	1880098561
 1332 0020 01081070 		.word	1880098817
 1333 0024 10091070 		.word	1880099088
 1334 0028 08101070 		.word	1880100872
 1335 002c 08111070 		.word	1880101128
 1336 0030 08121070 		.word	1880101384
 1337 0034 08131070 		.word	1880101640
 1338 0038 08141070 		.word	1880101896
 1339 003c 08151070 		.word	1880102152
 1340 0040 08161070 		.word	1880102408
 1341 0044 08171070 		.word	1880102664
 1342 0048 08181070 		.word	1880102920
 1343 004c 08191070 		.word	1880103176
 1344 0050 08201070 		.word	1880104968
 1345              		.section	.data.sModulardeviceprofile,"aw"
 1346              		.align	2
 1349              	sModulardeviceprofile:
 1350 0000 0200     		.short	2
 1351 0002 1000     		.short	16
 1352 0004 0300     		.short	3
 1353              		.section	.data.sModulelist,"aw"
 1354              		.align	2
 1357              	sModulelist:
 1358 0000 0300     		.short	3
 1359 0002 0000     		.space	2
 1360 0004 64000000 		.word	100
 1361 0008 C8000000 		.word	200
 1362 000c 2C010000 		.word	300
 1363              		.section	.data.sRxPDOassign,"aw"
 1364              		.align	2
 1365              		.set	.LANCHOR1,. + 0
 1368              	sRxPDOassign:
 1369 0000 0100     		.short	1
 1370 0002 0116     		.short	5633
 1371              		.section	.data.sTxPDOassign,"aw"
 1372              		.align	2
 1373              		.set	.LANCHOR2,. + 0
 1376              	sTxPDOassign:
 1377 0000 0200     		.short	2
 1378 0002 001A     		.short	6656
 1379 0004 021A     		.short	6658
 1380              		.section	.data.times,"aw"
 1381              		.align	2
ARM GAS  /tmp/cceYAhwt.s 			page 37


 1384              	times:
 1385 0000 00000001 		.word	16777216
 1386              		.text
 1387              	.Letext0:
 1388              		.file 2 "/usr/share/gcc-arm-none-eabi-10.3-2021.10/arm-none-eabi/include/machine/_default_types.h"
 1389              		.file 3 "/usr/share/gcc-arm-none-eabi-10.3-2021.10/arm-none-eabi/include/sys/_stdint.h"
 1390              		.file 4 "Drivers/CMSIS/Device/ST/STM32F4xx/Include/stm32f4xx.h"
 1391              		.file 5 "Drivers/STM32F4xx_StdPeriph_Driver/inc/stm32f4xx_can.h"
 1392              		.file 6 "Lib/ssc/include/sdoserv.h"
 1393              		.file 7 "Lib/ssc/include/objdef.h"
 1394              		.file 8 "Lib/ssc_app/include/el9800appl.h"
 1395              		.file 9 "Lib/ssc_app/include/ecatappl.h"
 1396              		.file 10 "Lib/ssc/include/el9800hw.h"
 1397              		.file 11 "Lib/ssc/include/applInterface.h"
 1398              		.file 12 "Drivers/STM32F4xx_StdPeriph_Driver/inc/stm32f4xx_gpio.h"
 1399              		.file 13 "<built-in>"
ARM GAS  /tmp/cceYAhwt.s 			page 38

