ARM GAS  /tmp/ccDuGyNz.s 			page 1


   1              		.cpu cortex-m4
   2              		.arch armv7e-m
   3              		.fpu fpv4-sp-d16
   4              		.eabi_attribute 27, 1
   5              		.eabi_attribute 28, 1
   6              		.eabi_attribute 20, 1
   7              		.eabi_attribute 21, 1
   8              		.eabi_attribute 23, 3
   9              		.eabi_attribute 24, 1
  10              		.eabi_attribute 25, 1
  11              		.eabi_attribute 26, 1
  12              		.eabi_attribute 30, 1
  13              		.eabi_attribute 34, 1
  14              		.eabi_attribute 18, 4
  15              		.file	"ecatapp.c"
  16              		.text
  17              	.Ltext0:
  18              		.cfi_sections	.debug_frame
  19              		.section	.text.check_dc_handler,"ax",%progbits
  20              		.align	1
  21              		.global	check_dc_handler
  22              		.syntax unified
  23              		.thumb
  24              		.thumb_func
  26              	check_dc_handler:
  27              	.LFB126:
  28              		.file 1 "Core/Src/ecatapp.c"
   1:Core/Src/ecatapp.c **** #include "esc.h"
   2:Core/Src/ecatapp.c **** #include "ecat_slv.h"
   3:Core/Src/ecatapp.c **** #include "utypes.h"
   4:Core/Src/ecatapp.c **** 
   5:Core/Src/ecatapp.c **** #include "esc_irq.h"
   6:Core/Src/ecatapp.c **** #include "pdo_override.h"
   7:Core/Src/ecatapp.c **** #include "ecatapp.h"
   8:Core/Src/ecatapp.c **** #include "stm32f4xx.h"
   9:Core/Src/ecatapp.c **** 
  10:Core/Src/ecatapp.c **** #include "bsp_can.h"
  11:Core/Src/ecatapp.c **** 
  12:Core/Src/ecatapp.c **** int last_heart = 0;
  13:Core/Src/ecatapp.c **** int heart[10] = {0};
  14:Core/Src/ecatapp.c **** bool heart_tag = 0;
  15:Core/Src/ecatapp.c **** 
  16:Core/Src/ecatapp.c **** extern uint8_t can1_rx_flag;
  17:Core/Src/ecatapp.c **** 
  18:Core/Src/ecatapp.c **** extern __IO uint32_t flag;
  19:Core/Src/ecatapp.c **** 
  20:Core/Src/ecatapp.c **** extern CanTxMsg Can1_TxMessage; // 发送缓冲区
  21:Core/Src/ecatapp.c **** extern CanRxMsg Can1_RxMessage; // 接收缓冲区
  22:Core/Src/ecatapp.c **** 
  23:Core/Src/ecatapp.c **** extern CanTxMsg Can2_TxMessage; // 发送缓冲区
  24:Core/Src/ecatapp.c **** extern CanRxMsg Can2_RxMessage; // 接收缓冲区
  25:Core/Src/ecatapp.c **** 
  26:Core/Src/ecatapp.c **** /* CANopen Object Dictionary */
  27:Core/Src/ecatapp.c **** _Objects Obj;
  28:Core/Src/ecatapp.c **** 
  29:Core/Src/ecatapp.c **** /* Application hook declaration */
  30:Core/Src/ecatapp.c **** void ecatapp(void);
ARM GAS  /tmp/ccDuGyNz.s 			page 2


  31:Core/Src/ecatapp.c **** uint16_t check_dc_handler(void);
  32:Core/Src/ecatapp.c **** 
  33:Core/Src/ecatapp.c **** /* SOES configuration */
  34:Core/Src/ecatapp.c **** static esc_cfg_t config = {
  35:Core/Src/ecatapp.c ****     .user_arg = "ax58100",
  36:Core/Src/ecatapp.c ****     .use_interrupt = 1,
  37:Core/Src/ecatapp.c ****     .watchdog_cnt = INT32_MAX,
  38:Core/Src/ecatapp.c ****     .set_defaults_hook = NULL,
  39:Core/Src/ecatapp.c ****     .pre_state_change_hook = NULL,
  40:Core/Src/ecatapp.c ****     .post_state_change_hook = NULL,
  41:Core/Src/ecatapp.c ****     .application_hook = ecatapp,
  42:Core/Src/ecatapp.c ****     .safeoutput_override = NULL,
  43:Core/Src/ecatapp.c ****     .pre_object_download_hook = NULL,
  44:Core/Src/ecatapp.c ****     .post_object_download_hook = NULL,
  45:Core/Src/ecatapp.c ****     .rxpdo_override = rxpdo_override,
  46:Core/Src/ecatapp.c ****     .txpdo_override = txpdo_override,
  47:Core/Src/ecatapp.c ****     .esc_hw_interrupt_enable = ESC_interrupt_enable,
  48:Core/Src/ecatapp.c ****     .esc_hw_interrupt_disable = ESC_interrupt_disable,
  49:Core/Src/ecatapp.c ****     .esc_hw_eep_handler = NULL,
  50:Core/Src/ecatapp.c ****     .esc_check_dc_handler = check_dc_handler,
  51:Core/Src/ecatapp.c **** };
  52:Core/Src/ecatapp.c **** 
  53:Core/Src/ecatapp.c **** /* CiA402 motion control configuration */
  54:Core/Src/ecatapp.c **** 
  55:Core/Src/ecatapp.c **** // **************************************************************
  56:Core/Src/ecatapp.c **** 
  57:Core/Src/ecatapp.c **** static uint8_t sync0_irq_flag = 0;
  58:Core/Src/ecatapp.c **** 
  59:Core/Src/ecatapp.c **** void EXTI0_IRQHandler(void)
  60:Core/Src/ecatapp.c **** {
  61:Core/Src/ecatapp.c ****     if (EXTI_GetITStatus(EXTI_Line0) != RESET)
  62:Core/Src/ecatapp.c ****     {
  63:Core/Src/ecatapp.c ****         EXTI_ClearITPendingBit(EXTI_Line0);
  64:Core/Src/ecatapp.c ****         sync0_irq_flag = 1;
  65:Core/Src/ecatapp.c ****         //GPIO_ToggleBits(GPIOB, GPIO_Pin_15);
  66:Core/Src/ecatapp.c ****     }
  67:Core/Src/ecatapp.c **** }
  68:Core/Src/ecatapp.c **** 
  69:Core/Src/ecatapp.c **** static uint8_t pdi_irq_flag = 0;
  70:Core/Src/ecatapp.c **** 
  71:Core/Src/ecatapp.c **** void EXTI9_5_IRQHandler(void)
  72:Core/Src/ecatapp.c **** {
  73:Core/Src/ecatapp.c ****     if (EXTI_GetITStatus(EXTI_Line8) != RESET)
  74:Core/Src/ecatapp.c ****     {
  75:Core/Src/ecatapp.c ****         EXTI_ClearITPendingBit(EXTI_Line8);
  76:Core/Src/ecatapp.c ****         pdi_irq_flag = 1;
  77:Core/Src/ecatapp.c ****         
  78:Core/Src/ecatapp.c ****     }
  79:Core/Src/ecatapp.c **** }
  80:Core/Src/ecatapp.c **** // **************************************************************
  81:Core/Src/ecatapp.c **** 
  82:Core/Src/ecatapp.c **** void ecatapp_init(void)
  83:Core/Src/ecatapp.c **** {
  84:Core/Src/ecatapp.c ****     ecat_slv_init(&config);
  85:Core/Src/ecatapp.c ****     init_override();
  86:Core/Src/ecatapp.c **** }
  87:Core/Src/ecatapp.c **** 
ARM GAS  /tmp/ccDuGyNz.s 			page 3


  88:Core/Src/ecatapp.c **** uint16_t check_dc_handler(void)
  89:Core/Src/ecatapp.c **** {
  29              		.loc 1 89 1 view -0
  30              		.cfi_startproc
  31              		@ args = 0, pretend = 0, frame = 0
  32              		@ frame_needed = 0, uses_anonymous_args = 0
  33 0000 10B5     		push	{r4, lr}
  34              		.cfi_def_cfa_offset 8
  35              		.cfi_offset 4, -8
  36              		.cfi_offset 14, -4
  90:Core/Src/ecatapp.c **** // minimum watchdog value is 1 ms, in nanoseconds
  91:Core/Src/ecatapp.c **** #define MIN_WATCHDOG_VALUE_NS 1000000
  92:Core/Src/ecatapp.c **** 
  93:Core/Src/ecatapp.c ****     /* Indicate we run DC */
  94:Core/Src/ecatapp.c ****     ESCvar.dcsync = 1;
  37              		.loc 1 94 5 view .LVU1
  38              		.loc 1 94 19 is_stmt 0 view .LVU2
  39 0002 0B4B     		ldr	r3, .L5
  40 0004 0122     		movs	r2, #1
  41 0006 83F87C20 		strb	r2, [r3, #124]
  95:Core/Src/ecatapp.c ****     /* Fetch the sync counter limit (SDO10F1) */
  96:Core/Src/ecatapp.c ****     ESCvar.synccounterlimit = Obj.Error_Settings.SyncErrorCounterLimit;
  42              		.loc 1 96 5 is_stmt 1 view .LVU3
  43              		.loc 1 96 49 is_stmt 0 view .LVU4
  44 000a 0A4C     		ldr	r4, .L5+4
  45 000c E26C     		ldr	r2, [r4, #76]
  46              		.loc 1 96 29 view .LVU5
  47 000e A3F87E20 		strh	r2, [r3, #126]	@ movhi
  97:Core/Src/ecatapp.c **** 
  98:Core/Src/ecatapp.c ****     uint32_t sync0cycleTime = ESC_enable_DC();
  48              		.loc 1 98 5 is_stmt 1 view .LVU6
  49              		.loc 1 98 31 is_stmt 0 view .LVU7
  50 0012 FFF7FEFF 		bl	ESC_enable_DC
  51              	.LVL0:
  52 0016 0346     		mov	r3, r0
  53              	.LVL1:
  99:Core/Src/ecatapp.c ****     Obj.Sync_Manager_2_Parameters.CycleTime = sync0cycleTime;
  54              		.loc 1 99 5 is_stmt 1 view .LVU8
  55              		.loc 1 99 45 is_stmt 0 view .LVU9
  56 0018 6065     		str	r0, [r4, #84]
 100:Core/Src/ecatapp.c ****     // Obj.Sync_Manager_3_Parameters.CycleTime = sync0cycleTime;
 101:Core/Src/ecatapp.c ****     // calculate watchdog value as 2 x SYNC0 cycle time
 102:Core/Src/ecatapp.c ****     int watchdog_value = 2 * sync0cycleTime;
  57              		.loc 1 102 5 is_stmt 1 view .LVU10
  58              		.loc 1 102 28 is_stmt 0 view .LVU11
  59 001a 4000     		lsls	r0, r0, #1
  60              	.LVL2:
 103:Core/Src/ecatapp.c ****     if (watchdog_value < MIN_WATCHDOG_VALUE_NS)
  61              		.loc 1 103 5 is_stmt 1 view .LVU12
  62              		.loc 1 103 8 is_stmt 0 view .LVU13
  63 001c 064A     		ldr	r2, .L5+8
  64 001e B2EB430F 		cmp	r2, r3, lsl #1
  65 0022 00DB     		blt	.L2
 104:Core/Src/ecatapp.c ****     {
 105:Core/Src/ecatapp.c ****         watchdog_value = MIN_WATCHDOG_VALUE_NS;
  66              		.loc 1 105 24 view .LVU14
  67 0024 0548     		ldr	r0, .L5+12
ARM GAS  /tmp/ccDuGyNz.s 			page 4


  68              	.LVL3:
  69              	.L2:
 106:Core/Src/ecatapp.c ****     }
 107:Core/Src/ecatapp.c ****     APP_setwatchdog(watchdog_value);
  70              		.loc 1 107 5 is_stmt 1 view .LVU15
  71 0026 FFF7FEFF 		bl	APP_setwatchdog
  72              	.LVL4:
 108:Core/Src/ecatapp.c **** 
 109:Core/Src/ecatapp.c ****     return 0;
  73              		.loc 1 109 5 view .LVU16
 110:Core/Src/ecatapp.c **** }
  74              		.loc 1 110 1 is_stmt 0 view .LVU17
  75 002a 0020     		movs	r0, #0
  76 002c 10BD     		pop	{r4, pc}
  77              	.L6:
  78 002e 00BF     		.align	2
  79              	.L5:
  80 0030 00000000 		.word	ESCvar
  81 0034 00000000 		.word	.LANCHOR0
  82 0038 3F420F00 		.word	999999
  83 003c 40420F00 		.word	1000000
  84              		.cfi_endproc
  85              	.LFE126:
  87              		.section	.text.ecatapp,"ax",%progbits
  88              		.align	1
  89              		.global	ecatapp
  90              		.syntax unified
  91              		.thumb
  92              		.thumb_func
  94              	ecatapp:
  95              	.LFB127:
 111:Core/Src/ecatapp.c **** 
 112:Core/Src/ecatapp.c **** void ecatapp()
 113:Core/Src/ecatapp.c **** {
  96              		.loc 1 113 1 is_stmt 1 view -0
  97              		.cfi_startproc
  98              		@ args = 0, pretend = 0, frame = 0
  99              		@ frame_needed = 0, uses_anonymous_args = 0
 100 0000 08B5     		push	{r3, lr}
 101              		.cfi_def_cfa_offset 8
 102              		.cfi_offset 3, -8
 103              		.cfi_offset 14, -4
 114:Core/Src/ecatapp.c ****     GPIO_ToggleBits(GPIOB, GPIO_Pin_15);
 104              		.loc 1 114 5 view .LVU19
 105 0002 4FF40041 		mov	r1, #32768
 106 0006 0248     		ldr	r0, .L9
 107 0008 FFF7FEFF 		bl	GPIO_ToggleBits
 108              	.LVL5:
 115:Core/Src/ecatapp.c **** }
 109              		.loc 1 115 1 is_stmt 0 view .LVU20
 110 000c 08BD     		pop	{r3, pc}
 111              	.L10:
 112 000e 00BF     		.align	2
 113              	.L9:
 114 0010 00040240 		.word	1073873920
 115              		.cfi_endproc
 116              	.LFE127:
ARM GAS  /tmp/ccDuGyNz.s 			page 5


 118              		.section	.text.EXTI0_IRQHandler,"ax",%progbits
 119              		.align	1
 120              		.global	EXTI0_IRQHandler
 121              		.syntax unified
 122              		.thumb
 123              		.thumb_func
 125              	EXTI0_IRQHandler:
 126              	.LFB123:
  60:Core/Src/ecatapp.c ****     if (EXTI_GetITStatus(EXTI_Line0) != RESET)
 127              		.loc 1 60 1 is_stmt 1 view -0
 128              		.cfi_startproc
 129              		@ args = 0, pretend = 0, frame = 0
 130              		@ frame_needed = 0, uses_anonymous_args = 0
 131 0000 08B5     		push	{r3, lr}
 132              		.cfi_def_cfa_offset 8
 133              		.cfi_offset 3, -8
 134              		.cfi_offset 14, -4
  61:Core/Src/ecatapp.c ****     {
 135              		.loc 1 61 5 view .LVU22
  61:Core/Src/ecatapp.c ****     {
 136              		.loc 1 61 9 is_stmt 0 view .LVU23
 137 0002 0120     		movs	r0, #1
 138 0004 FFF7FEFF 		bl	EXTI_GetITStatus
 139              	.LVL6:
  61:Core/Src/ecatapp.c ****     {
 140              		.loc 1 61 8 view .LVU24
 141 0008 00B9     		cbnz	r0, .L14
 142              	.L11:
  67:Core/Src/ecatapp.c **** 
 143              		.loc 1 67 1 view .LVU25
 144 000a 08BD     		pop	{r3, pc}
 145              	.L14:
  63:Core/Src/ecatapp.c ****         sync0_irq_flag = 1;
 146              		.loc 1 63 9 is_stmt 1 view .LVU26
 147 000c 0120     		movs	r0, #1
 148 000e FFF7FEFF 		bl	EXTI_ClearITPendingBit
 149              	.LVL7:
  64:Core/Src/ecatapp.c ****         //GPIO_ToggleBits(GPIOB, GPIO_Pin_15);
 150              		.loc 1 64 9 view .LVU27
  64:Core/Src/ecatapp.c ****         //GPIO_ToggleBits(GPIOB, GPIO_Pin_15);
 151              		.loc 1 64 24 is_stmt 0 view .LVU28
 152 0012 024B     		ldr	r3, .L15
 153 0014 0122     		movs	r2, #1
 154 0016 1A70     		strb	r2, [r3]
  67:Core/Src/ecatapp.c **** 
 155              		.loc 1 67 1 view .LVU29
 156 0018 F7E7     		b	.L11
 157              	.L16:
 158 001a 00BF     		.align	2
 159              	.L15:
 160 001c 00000000 		.word	.LANCHOR1
 161              		.cfi_endproc
 162              	.LFE123:
 164              		.section	.text.EXTI9_5_IRQHandler,"ax",%progbits
 165              		.align	1
 166              		.global	EXTI9_5_IRQHandler
 167              		.syntax unified
ARM GAS  /tmp/ccDuGyNz.s 			page 6


 168              		.thumb
 169              		.thumb_func
 171              	EXTI9_5_IRQHandler:
 172              	.LFB124:
  72:Core/Src/ecatapp.c ****     if (EXTI_GetITStatus(EXTI_Line8) != RESET)
 173              		.loc 1 72 1 is_stmt 1 view -0
 174              		.cfi_startproc
 175              		@ args = 0, pretend = 0, frame = 0
 176              		@ frame_needed = 0, uses_anonymous_args = 0
 177 0000 08B5     		push	{r3, lr}
 178              		.cfi_def_cfa_offset 8
 179              		.cfi_offset 3, -8
 180              		.cfi_offset 14, -4
  73:Core/Src/ecatapp.c ****     {
 181              		.loc 1 73 5 view .LVU31
  73:Core/Src/ecatapp.c ****     {
 182              		.loc 1 73 9 is_stmt 0 view .LVU32
 183 0002 4FF48070 		mov	r0, #256
 184 0006 FFF7FEFF 		bl	EXTI_GetITStatus
 185              	.LVL8:
  73:Core/Src/ecatapp.c ****     {
 186              		.loc 1 73 8 view .LVU33
 187 000a 00B9     		cbnz	r0, .L20
 188              	.L17:
  79:Core/Src/ecatapp.c **** // **************************************************************
 189              		.loc 1 79 1 view .LVU34
 190 000c 08BD     		pop	{r3, pc}
 191              	.L20:
  75:Core/Src/ecatapp.c ****         pdi_irq_flag = 1;
 192              		.loc 1 75 9 is_stmt 1 view .LVU35
 193 000e 4FF48070 		mov	r0, #256
 194 0012 FFF7FEFF 		bl	EXTI_ClearITPendingBit
 195              	.LVL9:
  76:Core/Src/ecatapp.c ****         
 196              		.loc 1 76 9 view .LVU36
  76:Core/Src/ecatapp.c ****         
 197              		.loc 1 76 22 is_stmt 0 view .LVU37
 198 0016 024B     		ldr	r3, .L21
 199 0018 0122     		movs	r2, #1
 200 001a 1A70     		strb	r2, [r3]
  79:Core/Src/ecatapp.c **** // **************************************************************
 201              		.loc 1 79 1 view .LVU38
 202 001c F6E7     		b	.L17
 203              	.L22:
 204 001e 00BF     		.align	2
 205              	.L21:
 206 0020 00000000 		.word	.LANCHOR2
 207              		.cfi_endproc
 208              	.LFE124:
 210              		.section	.text.ecatapp_init,"ax",%progbits
 211              		.align	1
 212              		.global	ecatapp_init
 213              		.syntax unified
 214              		.thumb
 215              		.thumb_func
 217              	ecatapp_init:
 218              	.LFB125:
ARM GAS  /tmp/ccDuGyNz.s 			page 7


  83:Core/Src/ecatapp.c ****     ecat_slv_init(&config);
 219              		.loc 1 83 1 is_stmt 1 view -0
 220              		.cfi_startproc
 221              		@ args = 0, pretend = 0, frame = 0
 222              		@ frame_needed = 0, uses_anonymous_args = 0
 223 0000 08B5     		push	{r3, lr}
 224              		.cfi_def_cfa_offset 8
 225              		.cfi_offset 3, -8
 226              		.cfi_offset 14, -4
  84:Core/Src/ecatapp.c ****     init_override();
 227              		.loc 1 84 5 view .LVU40
 228 0002 0348     		ldr	r0, .L25
 229 0004 FFF7FEFF 		bl	ecat_slv_init
 230              	.LVL10:
  85:Core/Src/ecatapp.c **** }
 231              		.loc 1 85 5 view .LVU41
 232 0008 FFF7FEFF 		bl	init_override
 233              	.LVL11:
  86:Core/Src/ecatapp.c **** 
 234              		.loc 1 86 1 is_stmt 0 view .LVU42
 235 000c 08BD     		pop	{r3, pc}
 236              	.L26:
 237 000e 00BF     		.align	2
 238              	.L25:
 239 0010 00000000 		.word	.LANCHOR3
 240              		.cfi_endproc
 241              	.LFE125:
 243              		.section	.text.cb_get_inputs,"ax",%progbits
 244              		.align	1
 245              		.global	cb_get_inputs
 246              		.syntax unified
 247              		.thumb
 248              		.thumb_func
 250              	cb_get_inputs:
 251              	.LFB128:
 116:Core/Src/ecatapp.c **** 
 117:Core/Src/ecatapp.c **** void cb_get_inputs()
 118:Core/Src/ecatapp.c **** {
 252              		.loc 1 118 1 is_stmt 1 view -0
 253              		.cfi_startproc
 254              		@ args = 0, pretend = 0, frame = 0
 255              		@ frame_needed = 0, uses_anonymous_args = 0
 256              		@ link register save eliminated.
 119:Core/Src/ecatapp.c ****     // CAN_Receive(CAN1, CAN_FIFO0, &Can1_RxMessage);
 120:Core/Src/ecatapp.c ****     // CAN_Receive(CAN2, CAN_FIFO1, &Can2_RxMessage);
 121:Core/Src/ecatapp.c **** 
 122:Core/Src/ecatapp.c ****     //Obj.can1_rx.StdId = Can1_RxMessage.StdId;
 123:Core/Src/ecatapp.c ****     //Obj.can1_rx.ExtId = Can1_RxMessage.ExtId;
 124:Core/Src/ecatapp.c ****     //Obj.can1_rx.IDE = Can1_RxMessage.IDE;
 125:Core/Src/ecatapp.c ****     //Obj.can1_rx.RTR = Can1_RxMessage.RTR;
 126:Core/Src/ecatapp.c ****     //Obj.can1_rx.DLC = Can1_RxMessage.DLC;
 127:Core/Src/ecatapp.c **** //
 128:Core/Src/ecatapp.c ****     //Obj.can1_rx_data[0] = Can1_RxMessage.Data[0];
 129:Core/Src/ecatapp.c ****     //Obj.can1_rx_data[1] = Can1_RxMessage.Data[1];
 130:Core/Src/ecatapp.c ****     //Obj.can1_rx_data[2] = Can1_RxMessage.Data[2];
 131:Core/Src/ecatapp.c ****     //Obj.can1_rx_data[3] = Can1_RxMessage.Data[3];
 132:Core/Src/ecatapp.c ****     //Obj.can1_rx_data[4] = Can1_RxMessage.Data[4];
ARM GAS  /tmp/ccDuGyNz.s 			page 8


 133:Core/Src/ecatapp.c ****     //Obj.can1_rx_data[5] = Can1_RxMessage.Data[5];
 134:Core/Src/ecatapp.c ****     //Obj.can1_rx_data[6] = Can1_RxMessage.Data[6];
 135:Core/Src/ecatapp.c ****     //Obj.can1_rx_data[7] = Can1_RxMessage.Data[7];
 136:Core/Src/ecatapp.c **** //
 137:Core/Src/ecatapp.c ****     //Obj.can2_rx.StdId = Can2_RxMessage.StdId;
 138:Core/Src/ecatapp.c ****     //Obj.can2_rx.ExtId = Can2_RxMessage.ExtId;
 139:Core/Src/ecatapp.c ****     //Obj.can2_rx.IDE = Can2_RxMessage.IDE;
 140:Core/Src/ecatapp.c ****     //Obj.can2_rx.RTR = Can2_RxMessage.RTR;
 141:Core/Src/ecatapp.c ****     //Obj.can2_rx.DLC = Can2_RxMessage.DLC;
 142:Core/Src/ecatapp.c **** //
 143:Core/Src/ecatapp.c ****     //Obj.can2_rx_data[0] = Can2_RxMessage.Data[0];
 144:Core/Src/ecatapp.c ****     //Obj.can2_rx_data[1] = Can2_RxMessage.Data[1];
 145:Core/Src/ecatapp.c ****     //Obj.can2_rx_data[2] = Can2_RxMessage.Data[2];
 146:Core/Src/ecatapp.c ****     //Obj.can2_rx_data[3] = Can2_RxMessage.Data[3];
 147:Core/Src/ecatapp.c ****     //Obj.can2_rx_data[4] = Can2_RxMessage.Data[4];
 148:Core/Src/ecatapp.c ****     //Obj.can2_rx_data[5] = Can2_RxMessage.Data[5];
 149:Core/Src/ecatapp.c ****     //Obj.can2_rx_data[6] = Can2_RxMessage.Data[6];
 150:Core/Src/ecatapp.c ****     //Obj.can2_rx_data[7] = Can2_RxMessage.Data[7];
 151:Core/Src/ecatapp.c **** //
 152:Core/Src/ecatapp.c ****     // if (heart_tag == 0)
 153:Core/Src/ecatapp.c ****     //{
 154:Core/Src/ecatapp.c ****     //    GPIO_SetBits(GPIOB, GPIO_Pin_15);
 155:Core/Src/ecatapp.c ****     //    heart_tag = 1;
 156:Core/Src/ecatapp.c ****     //}
 157:Core/Src/ecatapp.c ****     // else
 158:Core/Src/ecatapp.c ****     //{
 159:Core/Src/ecatapp.c ****     //    heart_tag = 0;
 160:Core/Src/ecatapp.c ****     //    GPIO_ResetBits(GPIOB, GPIO_Pin_15);
 161:Core/Src/ecatapp.c ****     //}
 162:Core/Src/ecatapp.c **** 
 163:Core/Src/ecatapp.c **** }
 257              		.loc 1 163 1 view .LVU44
 258 0000 7047     		bx	lr
 259              		.cfi_endproc
 260              	.LFE128:
 262              		.section	.text.cb_set_outputs,"ax",%progbits
 263              		.align	1
 264              		.global	cb_set_outputs
 265              		.syntax unified
 266              		.thumb
 267              		.thumb_func
 269              	cb_set_outputs:
 270              	.LFB129:
 164:Core/Src/ecatapp.c **** 
 165:Core/Src/ecatapp.c **** void cb_set_outputs()
 166:Core/Src/ecatapp.c **** {
 271              		.loc 1 166 1 view -0
 272              		.cfi_startproc
 273              		@ args = 0, pretend = 0, frame = 0
 274              		@ frame_needed = 0, uses_anonymous_args = 0
 275 0000 08B5     		push	{r3, lr}
 276              		.cfi_def_cfa_offset 8
 277              		.cfi_offset 3, -8
 278              		.cfi_offset 14, -4
 167:Core/Src/ecatapp.c **** 
 168:Core/Src/ecatapp.c ****     //Can1_TxMessage.StdId = Obj.can1_tx.StdId;
 169:Core/Src/ecatapp.c ****     //Can1_TxMessage.ExtId = Obj.can1_tx.ExtId;
ARM GAS  /tmp/ccDuGyNz.s 			page 9


 170:Core/Src/ecatapp.c ****     //Can1_TxMessage.IDE = Obj.can1_tx.IDE;
 171:Core/Src/ecatapp.c ****     //Can1_TxMessage.RTR = Obj.can1_tx.RTR;
 172:Core/Src/ecatapp.c ****     //Can1_TxMessage.DLC = Obj.can1_tx.DLC;
 173:Core/Src/ecatapp.c **** //
 174:Core/Src/ecatapp.c ****     //Can1_TxMessage.Data[0] = Obj.can1_tx_data[0];
 175:Core/Src/ecatapp.c ****     //Can1_TxMessage.Data[1] = Obj.can1_tx_data[1];
 176:Core/Src/ecatapp.c ****     //Can1_TxMessage.Data[2] = Obj.can1_tx_data[2];
 177:Core/Src/ecatapp.c ****     //Can1_TxMessage.Data[3] = Obj.can1_tx_data[3];
 178:Core/Src/ecatapp.c ****     //Can1_TxMessage.Data[4] = Obj.can1_tx_data[4];
 179:Core/Src/ecatapp.c ****     //Can1_TxMessage.Data[5] = Obj.can1_tx_data[5];
 180:Core/Src/ecatapp.c ****     //Can1_TxMessage.Data[6] = Obj.can1_tx_data[6];
 181:Core/Src/ecatapp.c ****     //Can1_TxMessage.Data[7] = Obj.can1_tx_data[7];
 182:Core/Src/ecatapp.c **** //
 183:Core/Src/ecatapp.c ****     //Can2_TxMessage.StdId = Obj.can2_tx.StdId;
 184:Core/Src/ecatapp.c ****     //Can2_TxMessage.ExtId = Obj.can2_tx.ExtId;
 185:Core/Src/ecatapp.c ****     //Can2_TxMessage.IDE = Obj.can2_tx.IDE;
 186:Core/Src/ecatapp.c ****     //Can2_TxMessage.RTR = Obj.can2_tx.RTR;
 187:Core/Src/ecatapp.c ****     //Can2_TxMessage.DLC = Obj.can2_tx.DLC;
 188:Core/Src/ecatapp.c **** //
 189:Core/Src/ecatapp.c ****     //Can2_TxMessage.Data[0] = Obj.can2_tx_data[0];
 190:Core/Src/ecatapp.c ****     //Can2_TxMessage.Data[1] = Obj.can2_tx_data[1];
 191:Core/Src/ecatapp.c ****     //Can2_TxMessage.Data[2] = Obj.can2_tx_data[2];
 192:Core/Src/ecatapp.c ****     //Can2_TxMessage.Data[3] = Obj.can2_tx_data[3];
 193:Core/Src/ecatapp.c ****     //Can2_TxMessage.Data[4] = Obj.can2_tx_data[4];
 194:Core/Src/ecatapp.c ****     //Can2_TxMessage.Data[5] = Obj.can2_tx_data[5];
 195:Core/Src/ecatapp.c ****     //Can2_TxMessage.Data[6] = Obj.can2_tx_data[6];
 196:Core/Src/ecatapp.c ****     //Can2_TxMessage.Data[7] = Obj.can2_tx_data[7];
 197:Core/Src/ecatapp.c **** 
 198:Core/Src/ecatapp.c ****     if (Obj.led[0] != 0)
 279              		.loc 1 198 5 view .LVU46
 280              		.loc 1 198 16 is_stmt 0 view .LVU47
 281 0002 0F4B     		ldr	r3, .L34
 282 0004 93F84430 		ldrb	r3, [r3, #68]	@ zero_extendqisi2
 283              		.loc 1 198 8 view .LVU48
 284 0008 73B1     		cbz	r3, .L29
 199:Core/Src/ecatapp.c ****     {
 200:Core/Src/ecatapp.c ****          GPIO_SetBits(GPIOB, GPIO_Pin_15);
 285              		.loc 1 200 10 is_stmt 1 view .LVU49
 286 000a 4FF40041 		mov	r1, #32768
 287 000e 0D48     		ldr	r0, .L34+4
 288 0010 FFF7FEFF 		bl	GPIO_SetBits
 289              	.LVL12:
 290              	.L30:
 201:Core/Src/ecatapp.c ****      }
 202:Core/Src/ecatapp.c ****      else
 203:Core/Src/ecatapp.c ****     {
 204:Core/Src/ecatapp.c ****          GPIO_ResetBits(GPIOB, GPIO_Pin_15);
 205:Core/Src/ecatapp.c ****      }
 206:Core/Src/ecatapp.c **** 
 207:Core/Src/ecatapp.c ****      if (Obj.led[1] != 0)
 291              		.loc 1 207 6 view .LVU50
 292              		.loc 1 207 17 is_stmt 0 view .LVU51
 293 0014 0A4B     		ldr	r3, .L34
 294 0016 93F84530 		ldrb	r3, [r3, #69]	@ zero_extendqisi2
 295              		.loc 1 207 9 view .LVU52
 296 001a 5BB1     		cbz	r3, .L31
 208:Core/Src/ecatapp.c ****     {
ARM GAS  /tmp/ccDuGyNz.s 			page 10


 209:Core/Src/ecatapp.c ****         GPIO_SetBits(GPIOB, GPIO_Pin_14);
 297              		.loc 1 209 9 is_stmt 1 view .LVU53
 298 001c 4FF48041 		mov	r1, #16384
 299 0020 0848     		ldr	r0, .L34+4
 300 0022 FFF7FEFF 		bl	GPIO_SetBits
 301              	.LVL13:
 302              	.L28:
 210:Core/Src/ecatapp.c ****     }
 211:Core/Src/ecatapp.c ****      else
 212:Core/Src/ecatapp.c ****     {
 213:Core/Src/ecatapp.c ****         GPIO_ResetBits(GPIOB, GPIO_Pin_14);
 214:Core/Src/ecatapp.c ****     }
 215:Core/Src/ecatapp.c ****     //
 216:Core/Src/ecatapp.c ****     // if (Obj.led[2] != 0)
 217:Core/Src/ecatapp.c ****     //{
 218:Core/Src/ecatapp.c ****     //    GPIO_SetBits(GPIOB, GPIO_Pin_13);
 219:Core/Src/ecatapp.c ****     //}
 220:Core/Src/ecatapp.c ****     // else
 221:Core/Src/ecatapp.c ****     //{
 222:Core/Src/ecatapp.c ****     //    GPIO_ResetBits(GPIOB, GPIO_Pin_13);
 223:Core/Src/ecatapp.c ****     //}
 224:Core/Src/ecatapp.c **** }
 303              		.loc 1 224 1 is_stmt 0 view .LVU54
 304 0026 08BD     		pop	{r3, pc}
 305              	.L29:
 204:Core/Src/ecatapp.c ****      }
 306              		.loc 1 204 10 is_stmt 1 view .LVU55
 307 0028 4FF40041 		mov	r1, #32768
 308 002c 0548     		ldr	r0, .L34+4
 309 002e FFF7FEFF 		bl	GPIO_ResetBits
 310              	.LVL14:
 311 0032 EFE7     		b	.L30
 312              	.L31:
 213:Core/Src/ecatapp.c ****     }
 313              		.loc 1 213 9 view .LVU56
 314 0034 4FF48041 		mov	r1, #16384
 315 0038 0248     		ldr	r0, .L34+4
 316 003a FFF7FEFF 		bl	GPIO_ResetBits
 317              	.LVL15:
 318              		.loc 1 224 1 is_stmt 0 view .LVU57
 319 003e F2E7     		b	.L28
 320              	.L35:
 321              		.align	2
 322              	.L34:
 323 0040 00000000 		.word	.LANCHOR0
 324 0044 00040240 		.word	1073873920
 325              		.cfi_endproc
 326              	.LFE129:
 328              		.section	.text.ecatapp_loop,"ax",%progbits
 329              		.align	1
 330              		.global	ecatapp_loop
 331              		.syntax unified
 332              		.thumb
 333              		.thumb_func
 335              	ecatapp_loop:
 336              	.LFB130:
 225:Core/Src/ecatapp.c **** 
ARM GAS  /tmp/ccDuGyNz.s 			page 11


 226:Core/Src/ecatapp.c **** void ecatapp_loop(void)
 227:Core/Src/ecatapp.c **** {
 337              		.loc 1 227 1 is_stmt 1 view -0
 338              		.cfi_startproc
 339              		@ args = 0, pretend = 0, frame = 0
 340              		@ frame_needed = 0, uses_anonymous_args = 0
 341 0000 10B5     		push	{r4, lr}
 342              		.cfi_def_cfa_offset 8
 343              		.cfi_offset 4, -8
 344              		.cfi_offset 14, -4
 228:Core/Src/ecatapp.c ****     // stack in mixed mode
 229:Core/Src/ecatapp.c ****     if (sync0_irq_flag)
 345              		.loc 1 229 5 view .LVU59
 346              		.loc 1 229 9 is_stmt 0 view .LVU60
 347 0002 174B     		ldr	r3, .L44
 348 0004 1B78     		ldrb	r3, [r3]	@ zero_extendqisi2
 349              		.loc 1 229 8 view .LVU61
 350 0006 9BB9     		cbnz	r3, .L43
 351              	.L37:
 230:Core/Src/ecatapp.c ****     {
 231:Core/Src/ecatapp.c ****         ESC_updateALevent();
 232:Core/Src/ecatapp.c ****         DIG_process(DIG_PROCESS_APP_HOOK_FLAG | DIG_PROCESS_INPUTS_FLAG);
 233:Core/Src/ecatapp.c ****         sync0_irq_flag = 0;
 234:Core/Src/ecatapp.c ****     }
 235:Core/Src/ecatapp.c ****     if (pdi_irq_flag)
 352              		.loc 1 235 5 is_stmt 1 view .LVU62
 353              		.loc 1 235 9 is_stmt 0 view .LVU63
 354 0008 164B     		ldr	r3, .L44+4
 355 000a 1B78     		ldrb	r3, [r3]	@ zero_extendqisi2
 356              		.loc 1 235 8 view .LVU64
 357 000c 0BB3     		cbz	r3, .L38
 236:Core/Src/ecatapp.c ****     {
 237:Core/Src/ecatapp.c ****         ESC_updateALevent();
 358              		.loc 1 237 9 is_stmt 1 view .LVU65
 359 000e 164C     		ldr	r4, .L44+8
 360 0010 0422     		movs	r2, #4
 361 0012 2146     		mov	r1, r4
 362 0014 4FF41160 		mov	r0, #2320
 363 0018 FFF7FEFF 		bl	ESC_read
 364              	.LVL16:
 365              		.loc 1 237 28 view .LVU66
 238:Core/Src/ecatapp.c ****         if (ESCvar.dcsync)
 366              		.loc 1 238 9 view .LVU67
 367              		.loc 1 238 19 is_stmt 0 view .LVU68
 368 001c 14F8643C 		ldrb	r3, [r4, #-100]	@ zero_extendqisi2
 369              		.loc 1 238 12 view .LVU69
 370 0020 9BB1     		cbz	r3, .L39
 239:Core/Src/ecatapp.c ****         {
 240:Core/Src/ecatapp.c ****             DIG_process(DIG_PROCESS_OUTPUTS_FLAG);
 371              		.loc 1 240 13 is_stmt 1 view .LVU70
 372 0022 0220     		movs	r0, #2
 373 0024 FFF7FEFF 		bl	DIG_process
 374              	.LVL17:
 375              	.L40:
 241:Core/Src/ecatapp.c ****         }
 242:Core/Src/ecatapp.c ****         else
 243:Core/Src/ecatapp.c ****         {
ARM GAS  /tmp/ccDuGyNz.s 			page 12


 244:Core/Src/ecatapp.c ****             DIG_process(DIG_PROCESS_OUTPUTS_FLAG | DIG_PROCESS_APP_HOOK_FLAG | DIG_PROCESS_INPUTS_F
 245:Core/Src/ecatapp.c ****         }
 246:Core/Src/ecatapp.c ****         pdi_irq_flag = 0;
 376              		.loc 1 246 9 view .LVU71
 377              		.loc 1 246 22 is_stmt 0 view .LVU72
 378 0028 0E4B     		ldr	r3, .L44+4
 379 002a 0022     		movs	r2, #0
 380 002c 1A70     		strb	r2, [r3]
 381              	.L36:
 247:Core/Src/ecatapp.c ****     }
 248:Core/Src/ecatapp.c ****     else
 249:Core/Src/ecatapp.c ****     {
 250:Core/Src/ecatapp.c ****         // ecat_slv_worker(ESCREG_ALEVENT_CONTROL | ESCREG_ALEVENT_SMCHANGE
 251:Core/Src/ecatapp.c ****         //                 | ESCREG_ALEVENT_SM0 | ESCREG_ALEVENT_SM1);
 252:Core/Src/ecatapp.c ****         ecat_slv_poll();
 253:Core/Src/ecatapp.c ****         DIG_process(DIG_PROCESS_WD_FLAG);
 254:Core/Src/ecatapp.c ****     }
 255:Core/Src/ecatapp.c **** }...
 382              		.loc 1 255 1 view .LVU73
 383 002e 10BD     		pop	{r4, pc}
 384              	.L43:
 231:Core/Src/ecatapp.c ****         ESC_updateALevent();
 385              		.loc 1 231 9 is_stmt 1 view .LVU74
 386 0030 0422     		movs	r2, #4
 387 0032 0D49     		ldr	r1, .L44+8
 388 0034 4FF41160 		mov	r0, #2320
 389 0038 FFF7FEFF 		bl	ESC_read
 390              	.LVL18:
 231:Core/Src/ecatapp.c ****         ESC_updateALevent();
 391              		.loc 1 231 28 view .LVU75
 232:Core/Src/ecatapp.c ****         DIG_process(DIG_PROCESS_APP_HOOK_FLAG | DIG_PROCESS_INPUTS_FLAG);
 392              		.loc 1 232 9 view .LVU76
 393 003c 0920     		movs	r0, #9
 394 003e FFF7FEFF 		bl	DIG_process
 395              	.LVL19:
 233:Core/Src/ecatapp.c ****         sync0_irq_flag = 0;
 396              		.loc 1 233 9 view .LVU77
 233:Core/Src/ecatapp.c ****         sync0_irq_flag = 0;
 397              		.loc 1 233 24 is_stmt 0 view .LVU78
 398 0042 074B     		ldr	r3, .L44
 399 0044 0022     		movs	r2, #0
 400 0046 1A70     		strb	r2, [r3]
 401 0048 DEE7     		b	.L37
 402              	.L39:
 244:Core/Src/ecatapp.c ****             DIG_process(DIG_PROCESS_OUTPUTS_FLAG | DIG_PROCESS_APP_HOOK_FLAG | DIG_PROCESS_INPUTS_F
 403              		.loc 1 244 13 is_stmt 1 view .LVU79
 404 004a 0B20     		movs	r0, #11
 405 004c FFF7FEFF 		bl	DIG_process
 406              	.LVL20:
 407 0050 EAE7     		b	.L40
 408              	.L38:
 252:Core/Src/ecatapp.c ****         ecat_slv_poll();
 409              		.loc 1 252 9 view .LVU80
 410 0052 FFF7FEFF 		bl	ecat_slv_poll
 411              	.LVL21:
 253:Core/Src/ecatapp.c ****         DIG_process(DIG_PROCESS_WD_FLAG);
 412              		.loc 1 253 9 view .LVU81
ARM GAS  /tmp/ccDuGyNz.s 			page 13


 413 0056 0420     		movs	r0, #4
 414 0058 FFF7FEFF 		bl	DIG_process
 415              	.LVL22:
 416              		.loc 1 255 1 is_stmt 0 view .LVU82
 417 005c E7E7     		b	.L36
 418              	.L45:
 419 005e 00BF     		.align	2
 420              	.L44:
 421 0060 00000000 		.word	.LANCHOR1
 422 0064 00000000 		.word	.LANCHOR2
 423 0068 E0000000 		.word	ESCvar+224
 424              		.cfi_endproc
 425              	.LFE130:
 427              		.section	.rodata.str1.4,"aMS",%progbits,1
 428              		.align	2
 429              	.LC0:
 430 0000 61783538 		.ascii	"ax58100\000"
 430      31303000 
 431              		.global	Obj
 432              		.global	heart_tag
 433              		.global	heart
 434              		.global	last_heart
 435              		.section	.bss.Obj,"aw",%nobits
 436              		.align	2
 437              		.set	.LANCHOR0,. + 0
 440              	Obj:
 441 0000 00000000 		.space	128
 441      00000000 
 441      00000000 
 441      00000000 
 441      00000000 
 442              		.section	.bss.heart,"aw",%nobits
 443              		.align	2
 446              	heart:
 447 0000 00000000 		.space	40
 447      00000000 
 447      00000000 
 447      00000000 
 447      00000000 
 448              		.section	.bss.heart_tag,"aw",%nobits
 451              	heart_tag:
 452 0000 00       		.space	1
 453              		.section	.bss.last_heart,"aw",%nobits
 454              		.align	2
 457              	last_heart:
 458 0000 00000000 		.space	4
 459              		.section	.bss.pdi_irq_flag,"aw",%nobits
 460              		.set	.LANCHOR2,. + 0
 463              	pdi_irq_flag:
 464 0000 00       		.space	1
 465              		.section	.bss.sync0_irq_flag,"aw",%nobits
 466              		.set	.LANCHOR1,. + 0
 469              	sync0_irq_flag:
 470 0000 00       		.space	1
 471              		.section	.data.config,"aw"
 472              		.align	2
 473              		.set	.LANCHOR3,. + 0
ARM GAS  /tmp/ccDuGyNz.s 			page 14


 476              	config:
 477 0000 00000000 		.word	.LC0
 478 0004 01000000 		.word	1
 479 0008 FFFFFF7F 		.word	2147483647
 480 000c 00000000 		.space	4
 481 0010 00000000 		.word	0
 482 0014 00000000 		.word	0
 483 0018 00000000 		.word	0
 484 001c 00000000 		.word	ecatapp
 485 0020 00000000 		.word	0
 486 0024 00000000 		.word	0
 487 0028 00000000 		.word	0
 488 002c 00000000 		.space	8
 488      00000000 
 489 0034 00000000 		.word	rxpdo_override
 490 0038 00000000 		.word	txpdo_override
 491 003c 00000000 		.word	ESC_interrupt_enable
 492 0040 00000000 		.word	ESC_interrupt_disable
 493 0044 00000000 		.word	0
 494 0048 00000000 		.word	check_dc_handler
 495 004c 00000000 		.space	4
 496              		.text
 497              	.Letext0:
 498              		.file 2 "/usr/share/gcc-arm-none-eabi-10.3-2021.10/arm-none-eabi/include/machine/_default_types.h"
 499              		.file 3 "/usr/share/gcc-arm-none-eabi-10.3-2021.10/arm-none-eabi/include/sys/_stdint.h"
 500              		.file 4 "/usr/share/gcc-arm-none-eabi-10.3-2021.10/lib/gcc/arm-none-eabi/10.3.1/include/stddef.h"
 501              		.file 5 "Lib/soes/inc/esc.h"
 502              		.file 6 "Lib/soes-esi/utypes.h"
 503              		.file 7 "Drivers/CMSIS/Device/ST/STM32F4xx/Include/stm32f4xx.h"
 504              		.file 8 "Lib/soes/inc/ecat_slv.h"
 505              		.file 9 "Drivers/STM32F4xx_StdPeriph_Driver/inc/stm32f4xx_gpio.h"
 506              		.file 10 "Lib/soes_hal_bsp/inc/esc_irq.h"
 507              		.file 11 "Core/Inc/pdo_override.h"
 508              		.file 12 "Drivers/STM32F4xx_StdPeriph_Driver/inc/stm32f4xx_exti.h"
ARM GAS  /tmp/ccDuGyNz.s 			page 15

