ARM GAS  /tmp/ccsLDf4S.s 			page 1


   1              		.cpu cortex-m4
   2              		.arch armv7e-m
   3              		.fpu fpv4-sp-d16
   4              		.eabi_attribute 27, 1
   5              		.eabi_attribute 28, 1
   6              		.eabi_attribute 20, 1
   7              		.eabi_attribute 21, 1
   8              		.eabi_attribute 23, 3
   9              		.eabi_attribute 24, 1
  10              		.eabi_attribute 25, 1
  11              		.eabi_attribute 26, 1
  12              		.eabi_attribute 30, 1
  13              		.eabi_attribute 34, 1
  14              		.eabi_attribute 18, 4
  15              		.file	"ecatapp.c"
  16              		.text
  17              	.Ltext0:
  18              		.cfi_sections	.debug_frame
  19              		.section	.text.ecatapp,"ax",%progbits
  20              		.align	1
  21              		.global	ecatapp
  22              		.syntax unified
  23              		.thumb
  24              		.thumb_func
  26              	ecatapp:
  27              	.LFB127:
  28              		.file 1 "Core/Src/ecatapp.c"
   1:Core/Src/ecatapp.c **** #include "esc.h"
   2:Core/Src/ecatapp.c **** #include "ecat_slv.h"
   3:Core/Src/ecatapp.c **** #include "utypes.h"
   4:Core/Src/ecatapp.c **** 
   5:Core/Src/ecatapp.c **** #include "esc_irq.h"
   6:Core/Src/ecatapp.c **** #include "pdo_override.h"
   7:Core/Src/ecatapp.c **** #include "ecatapp.h"
   8:Core/Src/ecatapp.c **** #include "stm32f4xx.h"
   9:Core/Src/ecatapp.c **** 
  10:Core/Src/ecatapp.c **** #include "bsp_can.h"
  11:Core/Src/ecatapp.c **** 
  12:Core/Src/ecatapp.c **** int last_heart = 0;
  13:Core/Src/ecatapp.c **** int heart[10] = {0};
  14:Core/Src/ecatapp.c **** bool heart_tag = 0;
  15:Core/Src/ecatapp.c **** 
  16:Core/Src/ecatapp.c **** extern uint8_t can1_rx_flag;
  17:Core/Src/ecatapp.c **** 
  18:Core/Src/ecatapp.c **** extern __IO uint32_t flag;
  19:Core/Src/ecatapp.c **** 
  20:Core/Src/ecatapp.c **** extern CanTxMsg Can1_TxMessage; // 发送缓冲区
  21:Core/Src/ecatapp.c **** extern CanRxMsg Can1_RxMessage; // 接收缓冲区
  22:Core/Src/ecatapp.c **** 
  23:Core/Src/ecatapp.c **** extern CanTxMsg Can2_TxMessage; // 发送缓冲区
  24:Core/Src/ecatapp.c **** extern CanRxMsg Can2_RxMessage; // 接收缓冲区
  25:Core/Src/ecatapp.c **** 
  26:Core/Src/ecatapp.c **** /* CANopen Object Dictionary */
  27:Core/Src/ecatapp.c **** _Objects Obj;
  28:Core/Src/ecatapp.c **** 
  29:Core/Src/ecatapp.c **** /* Application hook declaration */
  30:Core/Src/ecatapp.c **** void ecatapp(void);
ARM GAS  /tmp/ccsLDf4S.s 			page 2


  31:Core/Src/ecatapp.c **** uint16_t check_dc_handler(void);
  32:Core/Src/ecatapp.c **** 
  33:Core/Src/ecatapp.c **** /* SOES configuration */
  34:Core/Src/ecatapp.c **** static esc_cfg_t config = {
  35:Core/Src/ecatapp.c ****     .user_arg = "ax58100",
  36:Core/Src/ecatapp.c ****     .use_interrupt = 1,
  37:Core/Src/ecatapp.c ****     .watchdog_cnt = INT32_MAX,
  38:Core/Src/ecatapp.c ****     .set_defaults_hook = NULL,
  39:Core/Src/ecatapp.c ****     .pre_state_change_hook = NULL,
  40:Core/Src/ecatapp.c ****     .post_state_change_hook = NULL,
  41:Core/Src/ecatapp.c ****     .application_hook = ecatapp,
  42:Core/Src/ecatapp.c ****     .safeoutput_override = NULL,
  43:Core/Src/ecatapp.c ****     .pre_object_download_hook = NULL,
  44:Core/Src/ecatapp.c ****     .post_object_download_hook = NULL,
  45:Core/Src/ecatapp.c ****     .rxpdo_override = rxpdo_override,
  46:Core/Src/ecatapp.c ****     .txpdo_override = txpdo_override,
  47:Core/Src/ecatapp.c ****     .esc_hw_interrupt_enable = ESC_interrupt_enable,
  48:Core/Src/ecatapp.c ****     .esc_hw_interrupt_disable = ESC_interrupt_disable,
  49:Core/Src/ecatapp.c ****     .esc_hw_eep_handler = NULL,
  50:Core/Src/ecatapp.c ****     .esc_check_dc_handler = check_dc_handler,
  51:Core/Src/ecatapp.c **** };
  52:Core/Src/ecatapp.c **** 
  53:Core/Src/ecatapp.c **** /* CiA402 motion control configuration */
  54:Core/Src/ecatapp.c **** 
  55:Core/Src/ecatapp.c **** // **************************************************************
  56:Core/Src/ecatapp.c **** 
  57:Core/Src/ecatapp.c **** static uint8_t sync0_irq_flag = 0;
  58:Core/Src/ecatapp.c **** 
  59:Core/Src/ecatapp.c **** void EXTI0_IRQHandler(void)
  60:Core/Src/ecatapp.c **** {
  61:Core/Src/ecatapp.c ****     if (EXTI_GetITStatus(EXTI_Line0) != RESET)
  62:Core/Src/ecatapp.c ****     {
  63:Core/Src/ecatapp.c ****         EXTI_ClearITPendingBit(EXTI_Line0);
  64:Core/Src/ecatapp.c ****         sync0_irq_flag = 1;
  65:Core/Src/ecatapp.c ****     }
  66:Core/Src/ecatapp.c **** }
  67:Core/Src/ecatapp.c **** 
  68:Core/Src/ecatapp.c **** static uint8_t pdi_irq_flag = 0;
  69:Core/Src/ecatapp.c **** 
  70:Core/Src/ecatapp.c **** void EXTI9_5_IRQHandler(void)
  71:Core/Src/ecatapp.c **** {
  72:Core/Src/ecatapp.c ****     if (EXTI_GetITStatus(EXTI_Line8) != RESET)
  73:Core/Src/ecatapp.c ****     {
  74:Core/Src/ecatapp.c ****         EXTI_ClearITPendingBit(EXTI_Line8);
  75:Core/Src/ecatapp.c ****         pdi_irq_flag = 1;
  76:Core/Src/ecatapp.c ****     }
  77:Core/Src/ecatapp.c **** }
  78:Core/Src/ecatapp.c **** // **************************************************************
  79:Core/Src/ecatapp.c **** 
  80:Core/Src/ecatapp.c **** void ecatapp_init(void)
  81:Core/Src/ecatapp.c **** {
  82:Core/Src/ecatapp.c ****     ecat_slv_init(&config);
  83:Core/Src/ecatapp.c ****     init_override();
  84:Core/Src/ecatapp.c **** }
  85:Core/Src/ecatapp.c **** 
  86:Core/Src/ecatapp.c **** uint16_t check_dc_handler(void)
  87:Core/Src/ecatapp.c **** {
ARM GAS  /tmp/ccsLDf4S.s 			page 3


  88:Core/Src/ecatapp.c **** // minimum watchdog value is 1 ms, in nanoseconds
  89:Core/Src/ecatapp.c **** #define MIN_WATCHDOG_VALUE_NS 1000000
  90:Core/Src/ecatapp.c **** 
  91:Core/Src/ecatapp.c ****     /* Indicate we run DC */
  92:Core/Src/ecatapp.c ****     ESCvar.dcsync = 1;
  93:Core/Src/ecatapp.c ****     /* Fetch the sync counter limit (SDO10F1) */
  94:Core/Src/ecatapp.c ****     ESCvar.synccounterlimit = Obj.Error_Settings.SyncErrorCounterLimit;
  95:Core/Src/ecatapp.c **** 
  96:Core/Src/ecatapp.c ****     uint32_t sync0cycleTime = ESC_enable_DC();
  97:Core/Src/ecatapp.c ****     Obj.Sync_Manager_2_Parameters.CycleTime = sync0cycleTime;
  98:Core/Src/ecatapp.c ****     // Obj.Sync_Manager_3_Parameters.CycleTime = sync0cycleTime;
  99:Core/Src/ecatapp.c ****     // calculate watchdog value as 2 x SYNC0 cycle time
 100:Core/Src/ecatapp.c ****     int watchdog_value = 2 * sync0cycleTime;
 101:Core/Src/ecatapp.c ****     if (watchdog_value < MIN_WATCHDOG_VALUE_NS)
 102:Core/Src/ecatapp.c ****     {
 103:Core/Src/ecatapp.c ****         watchdog_value = MIN_WATCHDOG_VALUE_NS;
 104:Core/Src/ecatapp.c ****     }
 105:Core/Src/ecatapp.c ****     APP_setwatchdog(watchdog_value);
 106:Core/Src/ecatapp.c **** 
 107:Core/Src/ecatapp.c ****     return 0;
 108:Core/Src/ecatapp.c **** }
 109:Core/Src/ecatapp.c **** 
 110:Core/Src/ecatapp.c **** void ecatapp()
 111:Core/Src/ecatapp.c **** {
  29              		.loc 1 111 1 view -0
  30              		.cfi_startproc
  31              		@ args = 0, pretend = 0, frame = 0
  32              		@ frame_needed = 0, uses_anonymous_args = 0
  33              		@ link register save eliminated.
 112:Core/Src/ecatapp.c **** }
  34              		.loc 1 112 1 view .LVU1
  35 0000 7047     		bx	lr
  36              		.cfi_endproc
  37              	.LFE127:
  39              		.section	.text.check_dc_handler,"ax",%progbits
  40              		.align	1
  41              		.global	check_dc_handler
  42              		.syntax unified
  43              		.thumb
  44              		.thumb_func
  46              	check_dc_handler:
  47              	.LFB126:
  87:Core/Src/ecatapp.c **** // minimum watchdog value is 1 ms, in nanoseconds
  48              		.loc 1 87 1 view -0
  49              		.cfi_startproc
  50              		@ args = 0, pretend = 0, frame = 0
  51              		@ frame_needed = 0, uses_anonymous_args = 0
  52 0000 10B5     		push	{r4, lr}
  53              		.cfi_def_cfa_offset 8
  54              		.cfi_offset 4, -8
  55              		.cfi_offset 14, -4
  92:Core/Src/ecatapp.c ****     /* Fetch the sync counter limit (SDO10F1) */
  56              		.loc 1 92 5 view .LVU3
  92:Core/Src/ecatapp.c ****     /* Fetch the sync counter limit (SDO10F1) */
  57              		.loc 1 92 19 is_stmt 0 view .LVU4
  58 0002 0B4B     		ldr	r3, .L6
  59 0004 0122     		movs	r2, #1
ARM GAS  /tmp/ccsLDf4S.s 			page 4


  60 0006 83F87C20 		strb	r2, [r3, #124]
  94:Core/Src/ecatapp.c **** 
  61              		.loc 1 94 5 is_stmt 1 view .LVU5
  94:Core/Src/ecatapp.c **** 
  62              		.loc 1 94 49 is_stmt 0 view .LVU6
  63 000a 0A4C     		ldr	r4, .L6+4
  64 000c E26C     		ldr	r2, [r4, #76]
  94:Core/Src/ecatapp.c **** 
  65              		.loc 1 94 29 view .LVU7
  66 000e A3F87E20 		strh	r2, [r3, #126]	@ movhi
  96:Core/Src/ecatapp.c ****     Obj.Sync_Manager_2_Parameters.CycleTime = sync0cycleTime;
  67              		.loc 1 96 5 is_stmt 1 view .LVU8
  96:Core/Src/ecatapp.c ****     Obj.Sync_Manager_2_Parameters.CycleTime = sync0cycleTime;
  68              		.loc 1 96 31 is_stmt 0 view .LVU9
  69 0012 FFF7FEFF 		bl	ESC_enable_DC
  70              	.LVL0:
  71 0016 0346     		mov	r3, r0
  72              	.LVL1:
  97:Core/Src/ecatapp.c ****     // Obj.Sync_Manager_3_Parameters.CycleTime = sync0cycleTime;
  73              		.loc 1 97 5 is_stmt 1 view .LVU10
  97:Core/Src/ecatapp.c ****     // Obj.Sync_Manager_3_Parameters.CycleTime = sync0cycleTime;
  74              		.loc 1 97 45 is_stmt 0 view .LVU11
  75 0018 6065     		str	r0, [r4, #84]
 100:Core/Src/ecatapp.c ****     if (watchdog_value < MIN_WATCHDOG_VALUE_NS)
  76              		.loc 1 100 5 is_stmt 1 view .LVU12
 100:Core/Src/ecatapp.c ****     if (watchdog_value < MIN_WATCHDOG_VALUE_NS)
  77              		.loc 1 100 28 is_stmt 0 view .LVU13
  78 001a 4000     		lsls	r0, r0, #1
  79              	.LVL2:
 101:Core/Src/ecatapp.c ****     {
  80              		.loc 1 101 5 is_stmt 1 view .LVU14
 101:Core/Src/ecatapp.c ****     {
  81              		.loc 1 101 8 is_stmt 0 view .LVU15
  82 001c 064A     		ldr	r2, .L6+8
  83 001e B2EB430F 		cmp	r2, r3, lsl #1
  84 0022 00DB     		blt	.L3
 103:Core/Src/ecatapp.c ****     }
  85              		.loc 1 103 24 view .LVU16
  86 0024 0548     		ldr	r0, .L6+12
  87              	.LVL3:
  88              	.L3:
 105:Core/Src/ecatapp.c **** 
  89              		.loc 1 105 5 is_stmt 1 view .LVU17
  90 0026 FFF7FEFF 		bl	APP_setwatchdog
  91              	.LVL4:
 107:Core/Src/ecatapp.c **** }
  92              		.loc 1 107 5 view .LVU18
 108:Core/Src/ecatapp.c **** 
  93              		.loc 1 108 1 is_stmt 0 view .LVU19
  94 002a 0020     		movs	r0, #0
  95 002c 10BD     		pop	{r4, pc}
  96              	.L7:
  97 002e 00BF     		.align	2
  98              	.L6:
  99 0030 00000000 		.word	ESCvar
 100 0034 00000000 		.word	.LANCHOR0
 101 0038 3F420F00 		.word	999999
ARM GAS  /tmp/ccsLDf4S.s 			page 5


 102 003c 40420F00 		.word	1000000
 103              		.cfi_endproc
 104              	.LFE126:
 106              		.section	.text.EXTI0_IRQHandler,"ax",%progbits
 107              		.align	1
 108              		.global	EXTI0_IRQHandler
 109              		.syntax unified
 110              		.thumb
 111              		.thumb_func
 113              	EXTI0_IRQHandler:
 114              	.LFB123:
  60:Core/Src/ecatapp.c ****     if (EXTI_GetITStatus(EXTI_Line0) != RESET)
 115              		.loc 1 60 1 is_stmt 1 view -0
 116              		.cfi_startproc
 117              		@ args = 0, pretend = 0, frame = 0
 118              		@ frame_needed = 0, uses_anonymous_args = 0
 119 0000 08B5     		push	{r3, lr}
 120              		.cfi_def_cfa_offset 8
 121              		.cfi_offset 3, -8
 122              		.cfi_offset 14, -4
  61:Core/Src/ecatapp.c ****     {
 123              		.loc 1 61 5 view .LVU21
  61:Core/Src/ecatapp.c ****     {
 124              		.loc 1 61 9 is_stmt 0 view .LVU22
 125 0002 0120     		movs	r0, #1
 126 0004 FFF7FEFF 		bl	EXTI_GetITStatus
 127              	.LVL5:
  61:Core/Src/ecatapp.c ****     {
 128              		.loc 1 61 8 view .LVU23
 129 0008 00B9     		cbnz	r0, .L11
 130              	.L8:
  66:Core/Src/ecatapp.c **** 
 131              		.loc 1 66 1 view .LVU24
 132 000a 08BD     		pop	{r3, pc}
 133              	.L11:
  63:Core/Src/ecatapp.c ****         sync0_irq_flag = 1;
 134              		.loc 1 63 9 is_stmt 1 view .LVU25
 135 000c 0120     		movs	r0, #1
 136 000e FFF7FEFF 		bl	EXTI_ClearITPendingBit
 137              	.LVL6:
  64:Core/Src/ecatapp.c ****     }
 138              		.loc 1 64 9 view .LVU26
  64:Core/Src/ecatapp.c ****     }
 139              		.loc 1 64 24 is_stmt 0 view .LVU27
 140 0012 024B     		ldr	r3, .L12
 141 0014 0122     		movs	r2, #1
 142 0016 1A70     		strb	r2, [r3]
  66:Core/Src/ecatapp.c **** 
 143              		.loc 1 66 1 view .LVU28
 144 0018 F7E7     		b	.L8
 145              	.L13:
 146 001a 00BF     		.align	2
 147              	.L12:
 148 001c 00000000 		.word	.LANCHOR1
 149              		.cfi_endproc
 150              	.LFE123:
 152              		.section	.text.EXTI9_5_IRQHandler,"ax",%progbits
ARM GAS  /tmp/ccsLDf4S.s 			page 6


 153              		.align	1
 154              		.global	EXTI9_5_IRQHandler
 155              		.syntax unified
 156              		.thumb
 157              		.thumb_func
 159              	EXTI9_5_IRQHandler:
 160              	.LFB124:
  71:Core/Src/ecatapp.c ****     if (EXTI_GetITStatus(EXTI_Line8) != RESET)
 161              		.loc 1 71 1 is_stmt 1 view -0
 162              		.cfi_startproc
 163              		@ args = 0, pretend = 0, frame = 0
 164              		@ frame_needed = 0, uses_anonymous_args = 0
 165 0000 08B5     		push	{r3, lr}
 166              		.cfi_def_cfa_offset 8
 167              		.cfi_offset 3, -8
 168              		.cfi_offset 14, -4
  72:Core/Src/ecatapp.c ****     {
 169              		.loc 1 72 5 view .LVU30
  72:Core/Src/ecatapp.c ****     {
 170              		.loc 1 72 9 is_stmt 0 view .LVU31
 171 0002 4FF48070 		mov	r0, #256
 172 0006 FFF7FEFF 		bl	EXTI_GetITStatus
 173              	.LVL7:
  72:Core/Src/ecatapp.c ****     {
 174              		.loc 1 72 8 view .LVU32
 175 000a 00B9     		cbnz	r0, .L17
 176              	.L14:
  77:Core/Src/ecatapp.c **** // **************************************************************
 177              		.loc 1 77 1 view .LVU33
 178 000c 08BD     		pop	{r3, pc}
 179              	.L17:
  74:Core/Src/ecatapp.c ****         pdi_irq_flag = 1;
 180              		.loc 1 74 9 is_stmt 1 view .LVU34
 181 000e 4FF48070 		mov	r0, #256
 182 0012 FFF7FEFF 		bl	EXTI_ClearITPendingBit
 183              	.LVL8:
  75:Core/Src/ecatapp.c ****     }
 184              		.loc 1 75 9 view .LVU35
  75:Core/Src/ecatapp.c ****     }
 185              		.loc 1 75 22 is_stmt 0 view .LVU36
 186 0016 024B     		ldr	r3, .L18
 187 0018 0122     		movs	r2, #1
 188 001a 1A70     		strb	r2, [r3]
  77:Core/Src/ecatapp.c **** // **************************************************************
 189              		.loc 1 77 1 view .LVU37
 190 001c F6E7     		b	.L14
 191              	.L19:
 192 001e 00BF     		.align	2
 193              	.L18:
 194 0020 00000000 		.word	.LANCHOR2
 195              		.cfi_endproc
 196              	.LFE124:
 198              		.section	.text.ecatapp_init,"ax",%progbits
 199              		.align	1
 200              		.global	ecatapp_init
 201              		.syntax unified
 202              		.thumb
ARM GAS  /tmp/ccsLDf4S.s 			page 7


 203              		.thumb_func
 205              	ecatapp_init:
 206              	.LFB125:
  81:Core/Src/ecatapp.c ****     ecat_slv_init(&config);
 207              		.loc 1 81 1 is_stmt 1 view -0
 208              		.cfi_startproc
 209              		@ args = 0, pretend = 0, frame = 0
 210              		@ frame_needed = 0, uses_anonymous_args = 0
 211 0000 08B5     		push	{r3, lr}
 212              		.cfi_def_cfa_offset 8
 213              		.cfi_offset 3, -8
 214              		.cfi_offset 14, -4
  82:Core/Src/ecatapp.c ****     init_override();
 215              		.loc 1 82 5 view .LVU39
 216 0002 0348     		ldr	r0, .L22
 217 0004 FFF7FEFF 		bl	ecat_slv_init
 218              	.LVL9:
  83:Core/Src/ecatapp.c **** }
 219              		.loc 1 83 5 view .LVU40
 220 0008 FFF7FEFF 		bl	init_override
 221              	.LVL10:
  84:Core/Src/ecatapp.c **** 
 222              		.loc 1 84 1 is_stmt 0 view .LVU41
 223 000c 08BD     		pop	{r3, pc}
 224              	.L23:
 225 000e 00BF     		.align	2
 226              	.L22:
 227 0010 00000000 		.word	.LANCHOR3
 228              		.cfi_endproc
 229              	.LFE125:
 231              		.section	.text.cb_get_inputs,"ax",%progbits
 232              		.align	1
 233              		.global	cb_get_inputs
 234              		.syntax unified
 235              		.thumb
 236              		.thumb_func
 238              	cb_get_inputs:
 239              	.LFB128:
 113:Core/Src/ecatapp.c **** 
 114:Core/Src/ecatapp.c **** void cb_get_inputs()
 115:Core/Src/ecatapp.c **** {
 240              		.loc 1 115 1 is_stmt 1 view -0
 241              		.cfi_startproc
 242              		@ args = 0, pretend = 0, frame = 0
 243              		@ frame_needed = 0, uses_anonymous_args = 0
 244 0000 08B5     		push	{r3, lr}
 245              		.cfi_def_cfa_offset 8
 246              		.cfi_offset 3, -8
 247              		.cfi_offset 14, -4
 116:Core/Src/ecatapp.c ****     // CAN_Receive(CAN1, CAN_FIFO0, &Can1_RxMessage);
 117:Core/Src/ecatapp.c ****     // CAN_Receive(CAN2, CAN_FIFO1, &Can2_RxMessage);
 118:Core/Src/ecatapp.c **** 
 119:Core/Src/ecatapp.c ****     Obj.can1_rx.StdId = Can1_RxMessage.StdId;
 248              		.loc 1 119 5 view .LVU43
 249              		.loc 1 119 39 is_stmt 0 view .LVU44
 250 0002 284A     		ldr	r2, .L28
 251 0004 1168     		ldr	r1, [r2]
ARM GAS  /tmp/ccsLDf4S.s 			page 8


 252              		.loc 1 119 23 view .LVU45
 253 0006 284B     		ldr	r3, .L28+4
 254 0008 5960     		str	r1, [r3, #4]
 120:Core/Src/ecatapp.c ****     Obj.can1_rx.ExtId = Can1_RxMessage.ExtId;
 255              		.loc 1 120 5 is_stmt 1 view .LVU46
 256              		.loc 1 120 39 is_stmt 0 view .LVU47
 257 000a 5168     		ldr	r1, [r2, #4]
 258              		.loc 1 120 23 view .LVU48
 259 000c 1972     		strb	r1, [r3, #8]
 121:Core/Src/ecatapp.c ****     Obj.can1_rx.IDE = Can1_RxMessage.IDE;
 260              		.loc 1 121 5 is_stmt 1 view .LVU49
 261              		.loc 1 121 37 is_stmt 0 view .LVU50
 262 000e 117A     		ldrb	r1, [r2, #8]	@ zero_extendqisi2
 263              		.loc 1 121 21 view .LVU51
 264 0010 5972     		strb	r1, [r3, #9]
 122:Core/Src/ecatapp.c ****     Obj.can1_rx.RTR = Can1_RxMessage.RTR;
 265              		.loc 1 122 5 is_stmt 1 view .LVU52
 266              		.loc 1 122 37 is_stmt 0 view .LVU53
 267 0012 517A     		ldrb	r1, [r2, #9]	@ zero_extendqisi2
 268              		.loc 1 122 21 view .LVU54
 269 0014 9972     		strb	r1, [r3, #10]
 123:Core/Src/ecatapp.c ****     Obj.can1_rx.DLC = Can1_RxMessage.DLC;
 270              		.loc 1 123 5 is_stmt 1 view .LVU55
 271              		.loc 1 123 37 is_stmt 0 view .LVU56
 272 0016 917A     		ldrb	r1, [r2, #10]	@ zero_extendqisi2
 273              		.loc 1 123 21 view .LVU57
 274 0018 D972     		strb	r1, [r3, #11]
 124:Core/Src/ecatapp.c **** 
 125:Core/Src/ecatapp.c ****     Obj.can1_rx_data[0] = Can1_RxMessage.Data[0];
 275              		.loc 1 125 5 is_stmt 1 view .LVU58
 276              		.loc 1 125 46 is_stmt 0 view .LVU59
 277 001a D17A     		ldrb	r1, [r2, #11]	@ zero_extendqisi2
 278              		.loc 1 125 25 view .LVU60
 279 001c 1973     		strb	r1, [r3, #12]
 126:Core/Src/ecatapp.c ****     Obj.can1_rx_data[1] = Can1_RxMessage.Data[1];
 280              		.loc 1 126 5 is_stmt 1 view .LVU61
 281              		.loc 1 126 46 is_stmt 0 view .LVU62
 282 001e 117B     		ldrb	r1, [r2, #12]	@ zero_extendqisi2
 283              		.loc 1 126 25 view .LVU63
 284 0020 5973     		strb	r1, [r3, #13]
 127:Core/Src/ecatapp.c ****     Obj.can1_rx_data[2] = Can1_RxMessage.Data[2];
 285              		.loc 1 127 5 is_stmt 1 view .LVU64
 286              		.loc 1 127 46 is_stmt 0 view .LVU65
 287 0022 517B     		ldrb	r1, [r2, #13]	@ zero_extendqisi2
 288              		.loc 1 127 25 view .LVU66
 289 0024 9973     		strb	r1, [r3, #14]
 128:Core/Src/ecatapp.c ****     Obj.can1_rx_data[3] = Can1_RxMessage.Data[3];
 290              		.loc 1 128 5 is_stmt 1 view .LVU67
 291              		.loc 1 128 46 is_stmt 0 view .LVU68
 292 0026 917B     		ldrb	r1, [r2, #14]	@ zero_extendqisi2
 293              		.loc 1 128 25 view .LVU69
 294 0028 D973     		strb	r1, [r3, #15]
 129:Core/Src/ecatapp.c ****     Obj.can1_rx_data[4] = Can1_RxMessage.Data[4];
 295              		.loc 1 129 5 is_stmt 1 view .LVU70
 296              		.loc 1 129 46 is_stmt 0 view .LVU71
 297 002a D17B     		ldrb	r1, [r2, #15]	@ zero_extendqisi2
 298              		.loc 1 129 25 view .LVU72
ARM GAS  /tmp/ccsLDf4S.s 			page 9


 299 002c 1974     		strb	r1, [r3, #16]
 130:Core/Src/ecatapp.c ****     Obj.can1_rx_data[5] = Can1_RxMessage.Data[5];
 300              		.loc 1 130 5 is_stmt 1 view .LVU73
 301              		.loc 1 130 46 is_stmt 0 view .LVU74
 302 002e 117C     		ldrb	r1, [r2, #16]	@ zero_extendqisi2
 303              		.loc 1 130 25 view .LVU75
 304 0030 5974     		strb	r1, [r3, #17]
 131:Core/Src/ecatapp.c ****     Obj.can1_rx_data[6] = Can1_RxMessage.Data[6];
 305              		.loc 1 131 5 is_stmt 1 view .LVU76
 306              		.loc 1 131 46 is_stmt 0 view .LVU77
 307 0032 517C     		ldrb	r1, [r2, #17]	@ zero_extendqisi2
 308              		.loc 1 131 25 view .LVU78
 309 0034 9974     		strb	r1, [r3, #18]
 132:Core/Src/ecatapp.c ****     Obj.can1_rx_data[7] = Can1_RxMessage.Data[7];
 310              		.loc 1 132 5 is_stmt 1 view .LVU79
 311              		.loc 1 132 46 is_stmt 0 view .LVU80
 312 0036 927C     		ldrb	r2, [r2, #18]	@ zero_extendqisi2
 313              		.loc 1 132 25 view .LVU81
 314 0038 DA74     		strb	r2, [r3, #19]
 133:Core/Src/ecatapp.c **** 
 134:Core/Src/ecatapp.c ****     Obj.can2_rx.StdId = Can2_RxMessage.StdId;
 315              		.loc 1 134 5 is_stmt 1 view .LVU82
 316              		.loc 1 134 39 is_stmt 0 view .LVU83
 317 003a 1C4A     		ldr	r2, .L28+8
 318 003c 1168     		ldr	r1, [r2]
 319              		.loc 1 134 23 view .LVU84
 320 003e 5961     		str	r1, [r3, #20]
 135:Core/Src/ecatapp.c ****     Obj.can2_rx.ExtId = Can2_RxMessage.ExtId;
 321              		.loc 1 135 5 is_stmt 1 view .LVU85
 322              		.loc 1 135 39 is_stmt 0 view .LVU86
 323 0040 5168     		ldr	r1, [r2, #4]
 324              		.loc 1 135 23 view .LVU87
 325 0042 1976     		strb	r1, [r3, #24]
 136:Core/Src/ecatapp.c ****     Obj.can2_rx.IDE = Can2_RxMessage.IDE;
 326              		.loc 1 136 5 is_stmt 1 view .LVU88
 327              		.loc 1 136 37 is_stmt 0 view .LVU89
 328 0044 117A     		ldrb	r1, [r2, #8]	@ zero_extendqisi2
 329              		.loc 1 136 21 view .LVU90
 330 0046 5976     		strb	r1, [r3, #25]
 137:Core/Src/ecatapp.c ****     Obj.can2_rx.RTR = Can2_RxMessage.RTR;
 331              		.loc 1 137 5 is_stmt 1 view .LVU91
 332              		.loc 1 137 37 is_stmt 0 view .LVU92
 333 0048 517A     		ldrb	r1, [r2, #9]	@ zero_extendqisi2
 334              		.loc 1 137 21 view .LVU93
 335 004a 9976     		strb	r1, [r3, #26]
 138:Core/Src/ecatapp.c ****     Obj.can2_rx.DLC = Can2_RxMessage.DLC;
 336              		.loc 1 138 5 is_stmt 1 view .LVU94
 337              		.loc 1 138 37 is_stmt 0 view .LVU95
 338 004c 917A     		ldrb	r1, [r2, #10]	@ zero_extendqisi2
 339              		.loc 1 138 21 view .LVU96
 340 004e D976     		strb	r1, [r3, #27]
 139:Core/Src/ecatapp.c **** 
 140:Core/Src/ecatapp.c ****     Obj.can2_rx_data[0] = Can2_RxMessage.Data[0];
 341              		.loc 1 140 5 is_stmt 1 view .LVU97
 342              		.loc 1 140 46 is_stmt 0 view .LVU98
 343 0050 D17A     		ldrb	r1, [r2, #11]	@ zero_extendqisi2
 344              		.loc 1 140 25 view .LVU99
ARM GAS  /tmp/ccsLDf4S.s 			page 10


 345 0052 1977     		strb	r1, [r3, #28]
 141:Core/Src/ecatapp.c ****     Obj.can2_rx_data[1] = Can2_RxMessage.Data[1];
 346              		.loc 1 141 5 is_stmt 1 view .LVU100
 347              		.loc 1 141 46 is_stmt 0 view .LVU101
 348 0054 117B     		ldrb	r1, [r2, #12]	@ zero_extendqisi2
 349              		.loc 1 141 25 view .LVU102
 350 0056 5977     		strb	r1, [r3, #29]
 142:Core/Src/ecatapp.c ****     Obj.can2_rx_data[2] = Can2_RxMessage.Data[2];
 351              		.loc 1 142 5 is_stmt 1 view .LVU103
 352              		.loc 1 142 46 is_stmt 0 view .LVU104
 353 0058 517B     		ldrb	r1, [r2, #13]	@ zero_extendqisi2
 354              		.loc 1 142 25 view .LVU105
 355 005a 9977     		strb	r1, [r3, #30]
 143:Core/Src/ecatapp.c ****     Obj.can2_rx_data[3] = Can2_RxMessage.Data[3];
 356              		.loc 1 143 5 is_stmt 1 view .LVU106
 357              		.loc 1 143 46 is_stmt 0 view .LVU107
 358 005c 917B     		ldrb	r1, [r2, #14]	@ zero_extendqisi2
 359              		.loc 1 143 25 view .LVU108
 360 005e D977     		strb	r1, [r3, #31]
 144:Core/Src/ecatapp.c ****     Obj.can2_rx_data[4] = Can2_RxMessage.Data[4];
 361              		.loc 1 144 5 is_stmt 1 view .LVU109
 362              		.loc 1 144 46 is_stmt 0 view .LVU110
 363 0060 D17B     		ldrb	r1, [r2, #15]	@ zero_extendqisi2
 364              		.loc 1 144 25 view .LVU111
 365 0062 83F82010 		strb	r1, [r3, #32]
 145:Core/Src/ecatapp.c ****     Obj.can2_rx_data[5] = Can2_RxMessage.Data[5];
 366              		.loc 1 145 5 is_stmt 1 view .LVU112
 367              		.loc 1 145 46 is_stmt 0 view .LVU113
 368 0066 117C     		ldrb	r1, [r2, #16]	@ zero_extendqisi2
 369              		.loc 1 145 25 view .LVU114
 370 0068 83F82110 		strb	r1, [r3, #33]
 146:Core/Src/ecatapp.c ****     Obj.can2_rx_data[6] = Can2_RxMessage.Data[6];
 371              		.loc 1 146 5 is_stmt 1 view .LVU115
 372              		.loc 1 146 46 is_stmt 0 view .LVU116
 373 006c 517C     		ldrb	r1, [r2, #17]	@ zero_extendqisi2
 374              		.loc 1 146 25 view .LVU117
 375 006e 83F82210 		strb	r1, [r3, #34]
 147:Core/Src/ecatapp.c ****     Obj.can2_rx_data[7] = Can2_RxMessage.Data[7];
 376              		.loc 1 147 5 is_stmt 1 view .LVU118
 377              		.loc 1 147 46 is_stmt 0 view .LVU119
 378 0072 927C     		ldrb	r2, [r2, #18]	@ zero_extendqisi2
 379              		.loc 1 147 25 view .LVU120
 380 0074 83F82320 		strb	r2, [r3, #35]
 148:Core/Src/ecatapp.c **** 
 149:Core/Src/ecatapp.c ****      if (heart_tag == 0)
 381              		.loc 1 149 6 is_stmt 1 view .LVU121
 382              		.loc 1 149 20 is_stmt 0 view .LVU122
 383 0078 0D4B     		ldr	r3, .L28+12
 384 007a 1B78     		ldrb	r3, [r3]	@ zero_extendqisi2
 385              		.loc 1 149 9 view .LVU123
 386 007c 43B9     		cbnz	r3, .L25
 150:Core/Src/ecatapp.c ****     {
 151:Core/Src/ecatapp.c ****         GPIO_SetBits(GPIOB, GPIO_Pin_15);
 387              		.loc 1 151 9 is_stmt 1 view .LVU124
 388 007e 4FF40041 		mov	r1, #32768
 389 0082 0C48     		ldr	r0, .L28+16
 390 0084 FFF7FEFF 		bl	GPIO_SetBits
ARM GAS  /tmp/ccsLDf4S.s 			page 11


 391              	.LVL11:
 152:Core/Src/ecatapp.c ****         heart_tag = 1;
 392              		.loc 1 152 9 view .LVU125
 393              		.loc 1 152 19 is_stmt 0 view .LVU126
 394 0088 094B     		ldr	r3, .L28+12
 395 008a 0122     		movs	r2, #1
 396 008c 1A70     		strb	r2, [r3]
 397              	.L24:
 153:Core/Src/ecatapp.c ****     }
 154:Core/Src/ecatapp.c ****      else
 155:Core/Src/ecatapp.c ****     {
 156:Core/Src/ecatapp.c ****         heart_tag = 0;
 157:Core/Src/ecatapp.c ****         GPIO_ResetBits(GPIOB, GPIO_Pin_15);
 158:Core/Src/ecatapp.c ****     }
 159:Core/Src/ecatapp.c **** }
 398              		.loc 1 159 1 view .LVU127
 399 008e 08BD     		pop	{r3, pc}
 400              	.L25:
 156:Core/Src/ecatapp.c ****         GPIO_ResetBits(GPIOB, GPIO_Pin_15);
 401              		.loc 1 156 9 is_stmt 1 view .LVU128
 156:Core/Src/ecatapp.c ****         GPIO_ResetBits(GPIOB, GPIO_Pin_15);
 402              		.loc 1 156 19 is_stmt 0 view .LVU129
 403 0090 074B     		ldr	r3, .L28+12
 404 0092 0022     		movs	r2, #0
 405 0094 1A70     		strb	r2, [r3]
 157:Core/Src/ecatapp.c ****     }
 406              		.loc 1 157 9 is_stmt 1 view .LVU130
 407 0096 4FF40041 		mov	r1, #32768
 408 009a 0648     		ldr	r0, .L28+16
 409 009c FFF7FEFF 		bl	GPIO_ResetBits
 410              	.LVL12:
 411              		.loc 1 159 1 is_stmt 0 view .LVU131
 412 00a0 F5E7     		b	.L24
 413              	.L29:
 414 00a2 00BF     		.align	2
 415              	.L28:
 416 00a4 00000000 		.word	Can1_RxMessage
 417 00a8 00000000 		.word	.LANCHOR0
 418 00ac 00000000 		.word	Can2_RxMessage
 419 00b0 00000000 		.word	.LANCHOR4
 420 00b4 00040240 		.word	1073873920
 421              		.cfi_endproc
 422              	.LFE128:
 424              		.section	.text.cb_set_outputs,"ax",%progbits
 425              		.align	1
 426              		.global	cb_set_outputs
 427              		.syntax unified
 428              		.thumb
 429              		.thumb_func
 431              	cb_set_outputs:
 432              	.LFB129:
 160:Core/Src/ecatapp.c **** 
 161:Core/Src/ecatapp.c **** void cb_set_outputs()
 162:Core/Src/ecatapp.c **** {
 433              		.loc 1 162 1 is_stmt 1 view -0
 434              		.cfi_startproc
 435              		@ args = 0, pretend = 0, frame = 0
ARM GAS  /tmp/ccsLDf4S.s 			page 12


 436              		@ frame_needed = 0, uses_anonymous_args = 0
 437              		@ link register save eliminated.
 163:Core/Src/ecatapp.c **** 
 164:Core/Src/ecatapp.c ****     Can1_TxMessage.StdId = Obj.can1_tx.StdId;
 438              		.loc 1 164 5 view .LVU133
 439              		.loc 1 164 39 is_stmt 0 view .LVU134
 440 0000 274B     		ldr	r3, .L31
 441 0002 596A     		ldr	r1, [r3, #36]
 442              		.loc 1 164 26 view .LVU135
 443 0004 274A     		ldr	r2, .L31+4
 444 0006 1160     		str	r1, [r2]
 165:Core/Src/ecatapp.c ****     Can1_TxMessage.ExtId = Obj.can1_tx.ExtId;
 445              		.loc 1 165 5 is_stmt 1 view .LVU136
 446              		.loc 1 165 39 is_stmt 0 view .LVU137
 447 0008 93F82810 		ldrb	r1, [r3, #40]	@ zero_extendqisi2
 448              		.loc 1 165 26 view .LVU138
 449 000c 5160     		str	r1, [r2, #4]
 166:Core/Src/ecatapp.c ****     Can1_TxMessage.IDE = Obj.can1_tx.IDE;
 450              		.loc 1 166 5 is_stmt 1 view .LVU139
 451              		.loc 1 166 37 is_stmt 0 view .LVU140
 452 000e 93F82910 		ldrb	r1, [r3, #41]	@ zero_extendqisi2
 453              		.loc 1 166 24 view .LVU141
 454 0012 1172     		strb	r1, [r2, #8]
 167:Core/Src/ecatapp.c ****     Can1_TxMessage.RTR = Obj.can1_tx.RTR;
 455              		.loc 1 167 5 is_stmt 1 view .LVU142
 456              		.loc 1 167 37 is_stmt 0 view .LVU143
 457 0014 93F82A10 		ldrb	r1, [r3, #42]	@ zero_extendqisi2
 458              		.loc 1 167 24 view .LVU144
 459 0018 5172     		strb	r1, [r2, #9]
 168:Core/Src/ecatapp.c ****     Can1_TxMessage.DLC = Obj.can1_tx.DLC;
 460              		.loc 1 168 5 is_stmt 1 view .LVU145
 461              		.loc 1 168 37 is_stmt 0 view .LVU146
 462 001a 93F82B10 		ldrb	r1, [r3, #43]	@ zero_extendqisi2
 463              		.loc 1 168 24 view .LVU147
 464 001e 9172     		strb	r1, [r2, #10]
 169:Core/Src/ecatapp.c **** 
 170:Core/Src/ecatapp.c ****     Can1_TxMessage.Data[0] = Obj.can1_tx_data[0];
 465              		.loc 1 170 5 is_stmt 1 view .LVU148
 466              		.loc 1 170 46 is_stmt 0 view .LVU149
 467 0020 93F82C10 		ldrb	r1, [r3, #44]	@ zero_extendqisi2
 468              		.loc 1 170 28 view .LVU150
 469 0024 D172     		strb	r1, [r2, #11]
 171:Core/Src/ecatapp.c ****     Can1_TxMessage.Data[1] = Obj.can1_tx_data[1];
 470              		.loc 1 171 5 is_stmt 1 view .LVU151
 471              		.loc 1 171 46 is_stmt 0 view .LVU152
 472 0026 93F82D10 		ldrb	r1, [r3, #45]	@ zero_extendqisi2
 473              		.loc 1 171 28 view .LVU153
 474 002a 1173     		strb	r1, [r2, #12]
 172:Core/Src/ecatapp.c ****     Can1_TxMessage.Data[2] = Obj.can1_tx_data[2];
 475              		.loc 1 172 5 is_stmt 1 view .LVU154
 476              		.loc 1 172 46 is_stmt 0 view .LVU155
 477 002c 93F82E10 		ldrb	r1, [r3, #46]	@ zero_extendqisi2
 478              		.loc 1 172 28 view .LVU156
 479 0030 5173     		strb	r1, [r2, #13]
 173:Core/Src/ecatapp.c ****     Can1_TxMessage.Data[3] = Obj.can1_tx_data[3];
 480              		.loc 1 173 5 is_stmt 1 view .LVU157
 481              		.loc 1 173 46 is_stmt 0 view .LVU158
ARM GAS  /tmp/ccsLDf4S.s 			page 13


 482 0032 93F82F10 		ldrb	r1, [r3, #47]	@ zero_extendqisi2
 483              		.loc 1 173 28 view .LVU159
 484 0036 9173     		strb	r1, [r2, #14]
 174:Core/Src/ecatapp.c ****     Can1_TxMessage.Data[4] = Obj.can1_tx_data[4];
 485              		.loc 1 174 5 is_stmt 1 view .LVU160
 486              		.loc 1 174 46 is_stmt 0 view .LVU161
 487 0038 93F83010 		ldrb	r1, [r3, #48]	@ zero_extendqisi2
 488              		.loc 1 174 28 view .LVU162
 489 003c D173     		strb	r1, [r2, #15]
 175:Core/Src/ecatapp.c ****     Can1_TxMessage.Data[5] = Obj.can1_tx_data[5];
 490              		.loc 1 175 5 is_stmt 1 view .LVU163
 491              		.loc 1 175 46 is_stmt 0 view .LVU164
 492 003e 93F83110 		ldrb	r1, [r3, #49]	@ zero_extendqisi2
 493              		.loc 1 175 28 view .LVU165
 494 0042 1174     		strb	r1, [r2, #16]
 176:Core/Src/ecatapp.c ****     Can1_TxMessage.Data[6] = Obj.can1_tx_data[6];
 495              		.loc 1 176 5 is_stmt 1 view .LVU166
 496              		.loc 1 176 46 is_stmt 0 view .LVU167
 497 0044 93F83210 		ldrb	r1, [r3, #50]	@ zero_extendqisi2
 498              		.loc 1 176 28 view .LVU168
 499 0048 5174     		strb	r1, [r2, #17]
 177:Core/Src/ecatapp.c ****     Can1_TxMessage.Data[7] = Obj.can1_tx_data[7];
 500              		.loc 1 177 5 is_stmt 1 view .LVU169
 501              		.loc 1 177 46 is_stmt 0 view .LVU170
 502 004a 93F83310 		ldrb	r1, [r3, #51]	@ zero_extendqisi2
 503              		.loc 1 177 28 view .LVU171
 504 004e 9174     		strb	r1, [r2, #18]
 178:Core/Src/ecatapp.c **** 
 179:Core/Src/ecatapp.c ****     Can2_TxMessage.StdId = Obj.can2_tx.StdId;
 505              		.loc 1 179 5 is_stmt 1 view .LVU172
 506              		.loc 1 179 39 is_stmt 0 view .LVU173
 507 0050 596B     		ldr	r1, [r3, #52]
 508              		.loc 1 179 26 view .LVU174
 509 0052 154A     		ldr	r2, .L31+8
 510 0054 1160     		str	r1, [r2]
 180:Core/Src/ecatapp.c ****     Can2_TxMessage.ExtId = Obj.can2_tx.ExtId;
 511              		.loc 1 180 5 is_stmt 1 view .LVU175
 512              		.loc 1 180 39 is_stmt 0 view .LVU176
 513 0056 93F83810 		ldrb	r1, [r3, #56]	@ zero_extendqisi2
 514              		.loc 1 180 26 view .LVU177
 515 005a 5160     		str	r1, [r2, #4]
 181:Core/Src/ecatapp.c ****     Can2_TxMessage.IDE = Obj.can2_tx.IDE;
 516              		.loc 1 181 5 is_stmt 1 view .LVU178
 517              		.loc 1 181 37 is_stmt 0 view .LVU179
 518 005c 93F83910 		ldrb	r1, [r3, #57]	@ zero_extendqisi2
 519              		.loc 1 181 24 view .LVU180
 520 0060 1172     		strb	r1, [r2, #8]
 182:Core/Src/ecatapp.c ****     Can2_TxMessage.RTR = Obj.can2_tx.RTR;
 521              		.loc 1 182 5 is_stmt 1 view .LVU181
 522              		.loc 1 182 37 is_stmt 0 view .LVU182
 523 0062 93F83A10 		ldrb	r1, [r3, #58]	@ zero_extendqisi2
 524              		.loc 1 182 24 view .LVU183
 525 0066 5172     		strb	r1, [r2, #9]
 183:Core/Src/ecatapp.c ****     Can2_TxMessage.DLC = Obj.can2_tx.DLC;
 526              		.loc 1 183 5 is_stmt 1 view .LVU184
 527              		.loc 1 183 37 is_stmt 0 view .LVU185
 528 0068 93F83B10 		ldrb	r1, [r3, #59]	@ zero_extendqisi2
ARM GAS  /tmp/ccsLDf4S.s 			page 14


 529              		.loc 1 183 24 view .LVU186
 530 006c 9172     		strb	r1, [r2, #10]
 184:Core/Src/ecatapp.c **** 
 185:Core/Src/ecatapp.c ****     Can2_TxMessage.Data[0] = Obj.can2_tx_data[0];
 531              		.loc 1 185 5 is_stmt 1 view .LVU187
 532              		.loc 1 185 46 is_stmt 0 view .LVU188
 533 006e 93F83C10 		ldrb	r1, [r3, #60]	@ zero_extendqisi2
 534              		.loc 1 185 28 view .LVU189
 535 0072 D172     		strb	r1, [r2, #11]
 186:Core/Src/ecatapp.c ****     Can2_TxMessage.Data[1] = Obj.can2_tx_data[1];
 536              		.loc 1 186 5 is_stmt 1 view .LVU190
 537              		.loc 1 186 46 is_stmt 0 view .LVU191
 538 0074 93F83D10 		ldrb	r1, [r3, #61]	@ zero_extendqisi2
 539              		.loc 1 186 28 view .LVU192
 540 0078 1173     		strb	r1, [r2, #12]
 187:Core/Src/ecatapp.c ****     Can2_TxMessage.Data[2] = Obj.can2_tx_data[2];
 541              		.loc 1 187 5 is_stmt 1 view .LVU193
 542              		.loc 1 187 46 is_stmt 0 view .LVU194
 543 007a 93F83E10 		ldrb	r1, [r3, #62]	@ zero_extendqisi2
 544              		.loc 1 187 28 view .LVU195
 545 007e 5173     		strb	r1, [r2, #13]
 188:Core/Src/ecatapp.c ****     Can2_TxMessage.Data[3] = Obj.can2_tx_data[3];
 546              		.loc 1 188 5 is_stmt 1 view .LVU196
 547              		.loc 1 188 46 is_stmt 0 view .LVU197
 548 0080 93F83F10 		ldrb	r1, [r3, #63]	@ zero_extendqisi2
 549              		.loc 1 188 28 view .LVU198
 550 0084 9173     		strb	r1, [r2, #14]
 189:Core/Src/ecatapp.c ****     Can2_TxMessage.Data[4] = Obj.can2_tx_data[4];
 551              		.loc 1 189 5 is_stmt 1 view .LVU199
 552              		.loc 1 189 46 is_stmt 0 view .LVU200
 553 0086 93F84010 		ldrb	r1, [r3, #64]	@ zero_extendqisi2
 554              		.loc 1 189 28 view .LVU201
 555 008a D173     		strb	r1, [r2, #15]
 190:Core/Src/ecatapp.c ****     Can2_TxMessage.Data[5] = Obj.can2_tx_data[5];
 556              		.loc 1 190 5 is_stmt 1 view .LVU202
 557              		.loc 1 190 46 is_stmt 0 view .LVU203
 558 008c 93F84110 		ldrb	r1, [r3, #65]	@ zero_extendqisi2
 559              		.loc 1 190 28 view .LVU204
 560 0090 1174     		strb	r1, [r2, #16]
 191:Core/Src/ecatapp.c ****     Can2_TxMessage.Data[6] = Obj.can2_tx_data[6];
 561              		.loc 1 191 5 is_stmt 1 view .LVU205
 562              		.loc 1 191 46 is_stmt 0 view .LVU206
 563 0092 93F84210 		ldrb	r1, [r3, #66]	@ zero_extendqisi2
 564              		.loc 1 191 28 view .LVU207
 565 0096 5174     		strb	r1, [r2, #17]
 192:Core/Src/ecatapp.c ****     Can2_TxMessage.Data[7] = Obj.can2_tx_data[7];
 566              		.loc 1 192 5 is_stmt 1 view .LVU208
 567              		.loc 1 192 46 is_stmt 0 view .LVU209
 568 0098 93F84330 		ldrb	r3, [r3, #67]	@ zero_extendqisi2
 569              		.loc 1 192 28 view .LVU210
 570 009c 9374     		strb	r3, [r2, #18]
 193:Core/Src/ecatapp.c **** 
 194:Core/Src/ecatapp.c ****     // if (Obj.led[0] != 0)
 195:Core/Src/ecatapp.c ****     //{
 196:Core/Src/ecatapp.c ****     //     GPIO_SetBits(GPIOB, GPIO_Pin_15);
 197:Core/Src/ecatapp.c ****     // }
 198:Core/Src/ecatapp.c ****     // else
ARM GAS  /tmp/ccsLDf4S.s 			page 15


 199:Core/Src/ecatapp.c ****     //{
 200:Core/Src/ecatapp.c ****     //     GPIO_ResetBits(GPIOB, GPIO_Pin_15);
 201:Core/Src/ecatapp.c ****     // }
 202:Core/Src/ecatapp.c ****     //
 203:Core/Src/ecatapp.c ****     // if (Obj.led[1] != 0)
 204:Core/Src/ecatapp.c ****     //{
 205:Core/Src/ecatapp.c ****     //    GPIO_SetBits(GPIOB, GPIO_Pin_14);
 206:Core/Src/ecatapp.c ****     //}
 207:Core/Src/ecatapp.c ****     // else
 208:Core/Src/ecatapp.c ****     //{
 209:Core/Src/ecatapp.c ****     //    GPIO_ResetBits(GPIOB, GPIO_Pin_14);
 210:Core/Src/ecatapp.c ****     //}
 211:Core/Src/ecatapp.c ****     //
 212:Core/Src/ecatapp.c ****     // if (Obj.led[2] != 0)
 213:Core/Src/ecatapp.c ****     //{
 214:Core/Src/ecatapp.c ****     //    GPIO_SetBits(GPIOB, GPIO_Pin_13);
 215:Core/Src/ecatapp.c ****     //}
 216:Core/Src/ecatapp.c ****     // else
 217:Core/Src/ecatapp.c ****     //{
 218:Core/Src/ecatapp.c ****     //    GPIO_ResetBits(GPIOB, GPIO_Pin_13);
 219:Core/Src/ecatapp.c ****     //}
 220:Core/Src/ecatapp.c **** }
 571              		.loc 1 220 1 view .LVU211
 572 009e 7047     		bx	lr
 573              	.L32:
 574              		.align	2
 575              	.L31:
 576 00a0 00000000 		.word	.LANCHOR0
 577 00a4 00000000 		.word	Can1_TxMessage
 578 00a8 00000000 		.word	Can2_TxMessage
 579              		.cfi_endproc
 580              	.LFE129:
 582              		.section	.text.ecatapp_loop,"ax",%progbits
 583              		.align	1
 584              		.global	ecatapp_loop
 585              		.syntax unified
 586              		.thumb
 587              		.thumb_func
 589              	ecatapp_loop:
 590              	.LFB130:
 221:Core/Src/ecatapp.c **** 
 222:Core/Src/ecatapp.c **** void ecatapp_loop(void)
 223:Core/Src/ecatapp.c **** {
 591              		.loc 1 223 1 is_stmt 1 view -0
 592              		.cfi_startproc
 593              		@ args = 0, pretend = 0, frame = 0
 594              		@ frame_needed = 0, uses_anonymous_args = 0
 595 0000 10B5     		push	{r4, lr}
 596              		.cfi_def_cfa_offset 8
 597              		.cfi_offset 4, -8
 598              		.cfi_offset 14, -4
 224:Core/Src/ecatapp.c ****     // stack in mixed mode
 225:Core/Src/ecatapp.c ****     if (sync0_irq_flag)
 599              		.loc 1 225 5 view .LVU213
 600              		.loc 1 225 9 is_stmt 0 view .LVU214
 601 0002 174B     		ldr	r3, .L41
 602 0004 1B78     		ldrb	r3, [r3]	@ zero_extendqisi2
ARM GAS  /tmp/ccsLDf4S.s 			page 16


 603              		.loc 1 225 8 view .LVU215
 604 0006 9BB9     		cbnz	r3, .L40
 605              	.L34:
 226:Core/Src/ecatapp.c ****     {
 227:Core/Src/ecatapp.c ****         ESC_updateALevent();
 228:Core/Src/ecatapp.c ****         DIG_process(DIG_PROCESS_APP_HOOK_FLAG | DIG_PROCESS_INPUTS_FLAG);
 229:Core/Src/ecatapp.c ****         sync0_irq_flag = 0;
 230:Core/Src/ecatapp.c ****     }
 231:Core/Src/ecatapp.c ****     if (pdi_irq_flag)
 606              		.loc 1 231 5 is_stmt 1 view .LVU216
 607              		.loc 1 231 9 is_stmt 0 view .LVU217
 608 0008 164B     		ldr	r3, .L41+4
 609 000a 1B78     		ldrb	r3, [r3]	@ zero_extendqisi2
 610              		.loc 1 231 8 view .LVU218
 611 000c 0BB3     		cbz	r3, .L35
 232:Core/Src/ecatapp.c ****     {
 233:Core/Src/ecatapp.c ****         ESC_updateALevent();
 612              		.loc 1 233 9 is_stmt 1 view .LVU219
 613 000e 164C     		ldr	r4, .L41+8
 614 0010 0422     		movs	r2, #4
 615 0012 2146     		mov	r1, r4
 616 0014 4FF41160 		mov	r0, #2320
 617 0018 FFF7FEFF 		bl	ESC_read
 618              	.LVL13:
 619              		.loc 1 233 28 view .LVU220
 234:Core/Src/ecatapp.c ****         if (ESCvar.dcsync)
 620              		.loc 1 234 9 view .LVU221
 621              		.loc 1 234 19 is_stmt 0 view .LVU222
 622 001c 14F8643C 		ldrb	r3, [r4, #-100]	@ zero_extendqisi2
 623              		.loc 1 234 12 view .LVU223
 624 0020 9BB1     		cbz	r3, .L36
 235:Core/Src/ecatapp.c ****         {
 236:Core/Src/ecatapp.c ****             DIG_process(DIG_PROCESS_OUTPUTS_FLAG);
 625              		.loc 1 236 13 is_stmt 1 view .LVU224
 626 0022 0220     		movs	r0, #2
 627 0024 FFF7FEFF 		bl	DIG_process
 628              	.LVL14:
 629              	.L37:
 237:Core/Src/ecatapp.c ****         }
 238:Core/Src/ecatapp.c ****         else
 239:Core/Src/ecatapp.c ****         {
 240:Core/Src/ecatapp.c ****             DIG_process(DIG_PROCESS_OUTPUTS_FLAG | DIG_PROCESS_APP_HOOK_FLAG | DIG_PROCESS_INPUTS_F
 241:Core/Src/ecatapp.c ****         }
 242:Core/Src/ecatapp.c ****         pdi_irq_flag = 0;
 630              		.loc 1 242 9 view .LVU225
 631              		.loc 1 242 22 is_stmt 0 view .LVU226
 632 0028 0E4B     		ldr	r3, .L41+4
 633 002a 0022     		movs	r2, #0
 634 002c 1A70     		strb	r2, [r3]
 635              	.L33:
 243:Core/Src/ecatapp.c ****     }
 244:Core/Src/ecatapp.c ****     else
 245:Core/Src/ecatapp.c ****     {
 246:Core/Src/ecatapp.c ****         // ecat_slv_worker(ESCREG_ALEVENT_CONTROL | ESCREG_ALEVENT_SMCHANGE
 247:Core/Src/ecatapp.c ****         //                 | ESCREG_ALEVENT_SM0 | ESCREG_ALEVENT_SM1);
 248:Core/Src/ecatapp.c ****         ecat_slv_poll();
 249:Core/Src/ecatapp.c ****         DIG_process(DIG_PROCESS_WD_FLAG);
ARM GAS  /tmp/ccsLDf4S.s 			page 17


 250:Core/Src/ecatapp.c ****     }
 251:Core/Src/ecatapp.c **** }...
 636              		.loc 1 251 1 view .LVU227
 637 002e 10BD     		pop	{r4, pc}
 638              	.L40:
 227:Core/Src/ecatapp.c ****         ESC_updateALevent();
 639              		.loc 1 227 9 is_stmt 1 view .LVU228
 640 0030 0422     		movs	r2, #4
 641 0032 0D49     		ldr	r1, .L41+8
 642 0034 4FF41160 		mov	r0, #2320
 643 0038 FFF7FEFF 		bl	ESC_read
 644              	.LVL15:
 227:Core/Src/ecatapp.c ****         ESC_updateALevent();
 645              		.loc 1 227 28 view .LVU229
 228:Core/Src/ecatapp.c ****         DIG_process(DIG_PROCESS_APP_HOOK_FLAG | DIG_PROCESS_INPUTS_FLAG);
 646              		.loc 1 228 9 view .LVU230
 647 003c 0920     		movs	r0, #9
 648 003e FFF7FEFF 		bl	DIG_process
 649              	.LVL16:
 229:Core/Src/ecatapp.c ****         sync0_irq_flag = 0;
 650              		.loc 1 229 9 view .LVU231
 229:Core/Src/ecatapp.c ****         sync0_irq_flag = 0;
 651              		.loc 1 229 24 is_stmt 0 view .LVU232
 652 0042 074B     		ldr	r3, .L41
 653 0044 0022     		movs	r2, #0
 654 0046 1A70     		strb	r2, [r3]
 655 0048 DEE7     		b	.L34
 656              	.L36:
 240:Core/Src/ecatapp.c ****             DIG_process(DIG_PROCESS_OUTPUTS_FLAG | DIG_PROCESS_APP_HOOK_FLAG | DIG_PROCESS_INPUTS_F
 657              		.loc 1 240 13 is_stmt 1 view .LVU233
 658 004a 0B20     		movs	r0, #11
 659 004c FFF7FEFF 		bl	DIG_process
 660              	.LVL17:
 661 0050 EAE7     		b	.L37
 662              	.L35:
 248:Core/Src/ecatapp.c ****         ecat_slv_poll();
 663              		.loc 1 248 9 view .LVU234
 664 0052 FFF7FEFF 		bl	ecat_slv_poll
 665              	.LVL18:
 249:Core/Src/ecatapp.c ****         DIG_process(DIG_PROCESS_WD_FLAG);
 666              		.loc 1 249 9 view .LVU235
 667 0056 0420     		movs	r0, #4
 668 0058 FFF7FEFF 		bl	DIG_process
 669              	.LVL19:
 670              		.loc 1 251 1 is_stmt 0 view .LVU236
 671 005c E7E7     		b	.L33
 672              	.L42:
 673 005e 00BF     		.align	2
 674              	.L41:
 675 0060 00000000 		.word	.LANCHOR1
 676 0064 00000000 		.word	.LANCHOR2
 677 0068 E0000000 		.word	ESCvar+224
 678              		.cfi_endproc
 679              	.LFE130:
 681              		.section	.rodata.str1.4,"aMS",%progbits,1
 682              		.align	2
 683              	.LC0:
ARM GAS  /tmp/ccsLDf4S.s 			page 18


 684 0000 61783538 		.ascii	"ax58100\000"
 684      31303000 
 685              		.global	Obj
 686              		.global	heart_tag
 687              		.global	heart
 688              		.global	last_heart
 689              		.section	.bss.Obj,"aw",%nobits
 690              		.align	2
 691              		.set	.LANCHOR0,. + 0
 694              	Obj:
 695 0000 00000000 		.space	128
 695      00000000 
 695      00000000 
 695      00000000 
 695      00000000 
 696              		.section	.bss.heart,"aw",%nobits
 697              		.align	2
 700              	heart:
 701 0000 00000000 		.space	40
 701      00000000 
 701      00000000 
 701      00000000 
 701      00000000 
 702              		.section	.bss.heart_tag,"aw",%nobits
 703              		.set	.LANCHOR4,. + 0
 706              	heart_tag:
 707 0000 00       		.space	1
 708              		.section	.bss.last_heart,"aw",%nobits
 709              		.align	2
 712              	last_heart:
 713 0000 00000000 		.space	4
 714              		.section	.bss.pdi_irq_flag,"aw",%nobits
 715              		.set	.LANCHOR2,. + 0
 718              	pdi_irq_flag:
 719 0000 00       		.space	1
 720              		.section	.bss.sync0_irq_flag,"aw",%nobits
 721              		.set	.LANCHOR1,. + 0
 724              	sync0_irq_flag:
 725 0000 00       		.space	1
 726              		.section	.data.config,"aw"
 727              		.align	2
 728              		.set	.LANCHOR3,. + 0
 731              	config:
 732 0000 00000000 		.word	.LC0
 733 0004 01000000 		.word	1
 734 0008 FFFFFF7F 		.word	2147483647
 735 000c 00000000 		.space	4
 736 0010 00000000 		.word	0
 737 0014 00000000 		.word	0
 738 0018 00000000 		.word	0
 739 001c 00000000 		.word	ecatapp
 740 0020 00000000 		.word	0
 741 0024 00000000 		.word	0
 742 0028 00000000 		.word	0
 743 002c 00000000 		.space	8
 743      00000000 
 744 0034 00000000 		.word	rxpdo_override
ARM GAS  /tmp/ccsLDf4S.s 			page 19


 745 0038 00000000 		.word	txpdo_override
 746 003c 00000000 		.word	ESC_interrupt_enable
 747 0040 00000000 		.word	ESC_interrupt_disable
 748 0044 00000000 		.word	0
 749 0048 00000000 		.word	check_dc_handler
 750 004c 00000000 		.space	4
 751              		.text
 752              	.Letext0:
 753              		.file 2 "/usr/share/gcc-arm-none-eabi-10.3-2021.10/arm-none-eabi/include/machine/_default_types.h"
 754              		.file 3 "/usr/share/gcc-arm-none-eabi-10.3-2021.10/arm-none-eabi/include/sys/_stdint.h"
 755              		.file 4 "/usr/share/gcc-arm-none-eabi-10.3-2021.10/lib/gcc/arm-none-eabi/10.3.1/include/stddef.h"
 756              		.file 5 "Lib/soes/inc/esc.h"
 757              		.file 6 "Lib/soes-esi/utypes.h"
 758              		.file 7 "Drivers/CMSIS/Device/ST/STM32F4xx/Include/stm32f4xx.h"
 759              		.file 8 "Drivers/STM32F4xx_StdPeriph_Driver/inc/stm32f4xx_can.h"
 760              		.file 9 "Lib/soes/inc/ecat_slv.h"
 761              		.file 10 "Drivers/STM32F4xx_StdPeriph_Driver/inc/stm32f4xx_gpio.h"
 762              		.file 11 "Lib/soes_hal_bsp/inc/esc_irq.h"
 763              		.file 12 "Core/Inc/pdo_override.h"
 764              		.file 13 "Drivers/STM32F4xx_StdPeriph_Driver/inc/stm32f4xx_exti.h"
ARM GAS  /tmp/ccsLDf4S.s 			page 20

